TN:
SF:/usr/local/include/gtest/gtest-message.h
FN:113,_ZN7testing7MessagelsIiEERS0_RKT_
FNDA:21,_ZN7testing7MessagelsIiEERS0_RKT_
FN:210,_ZN7testing8internal18StreamableToStringIiEENSt7__cxx1112basic_stringIcSt11char_traitsIcESaIcEEERKT_
FNDA:21,_ZN7testing8internal18StreamableToStringIiEENSt7__cxx1112basic_stringIcSt11char_traitsIcESaIcEEERKT_
DA:113,21
DA:129,21
DA:130,21
DA:210,21
DA:211,42
BRDA:211,0,0,21
BRDA:211,0,1,0
BRDA:211,0,2,21
BRDA:211,0,3,0
end_of_record
SF:/usr/include/c++/9/bits/stl_map.h
FN:183,_ZNSt3mapINSt7__cxx1112basic_stringIcSt11char_traitsIcESaIcEEEN7testing8internal12CodeLocationESt4lessIS5_ESaISt4pairIKS5_S8_EEEC2Ev
FNDA:1,_ZNSt3mapINSt7__cxx1112basic_stringIcSt11char_traitsIcESaIcEEEN7testing8internal12CodeLocationESt4lessIS5_ESaISt4pairIKS5_S8_EEEC2Ev
FN:300,_ZNSt3mapINSt7__cxx1112basic_stringIcSt11char_traitsIcESaIcEEEN7testing8internal12CodeLocationESt4lessIS5_ESaISt4pairIKS5_S8_EEED2Ev
FNDA:1,_ZNSt3mapINSt7__cxx1112basic_stringIcSt11char_traitsIcESaIcEEEN7testing8internal12CodeLocationESt4lessIS5_ESaISt4pairIKS5_S8_EEED2Ev
FN:381,_ZNKSt3mapINSt7__cxx1112basic_stringIcSt11char_traitsIcESaIcEEEN7testing8internal12CodeLocationESt4lessIS5_ESaISt4pairIKS5_S8_EEE3endEv
FNDA:3,_ZNKSt3mapINSt7__cxx1112basic_stringIcSt11char_traitsIcESaIcEEEN7testing8internal12CodeLocationESt4lessIS5_ESaISt4pairIKS5_S8_EEE3endEv
FN:814,_ZNSt3mapINSt7__cxx1112basic_stringIcSt11char_traitsIcESaIcEEEN7testing8internal12CodeLocationESt4lessIS5_ESaISt4pairIKS5_S8_EEE6insertISB_IPKcS8_EEENSt9enable_ifIXsrSt16is_constructibleISD_JT_EE5valueESB_ISt17_Rb_tree_iteratorISD_EbEE4typeEOSM_
FNDA:3,_ZNSt3mapINSt7__cxx1112basic_stringIcSt11char_traitsIcESaIcEEEN7testing8internal12CodeLocationESt4lessIS5_ESaISt4pairIKS5_S8_EEE6insertISB_IPKcS8_EEENSt9enable_ifIXsrSt16is_constructibleISD_JT_EE5valueESB_ISt17_Rb_tree_iteratorISD_EbEE4typeEOSM_
FN:1193,_ZNKSt3mapINSt7__cxx1112basic_stringIcSt11char_traitsIcESaIcEEEN7testing8internal12CodeLocationESt4lessIS5_ESaISt4pairIKS5_S8_EEE4findERSC_
FNDA:3,_ZNKSt3mapINSt7__cxx1112basic_stringIcSt11char_traitsIcESaIcEEEN7testing8internal12CodeLocationESt4lessIS5_ESaISt4pairIKS5_S8_EEE4findERSC_
FN:1214,_ZNKSt3mapINSt7__cxx1112basic_stringIcSt11char_traitsIcESaIcEEEN7testing8internal12CodeLocationESt4lessIS5_ESaISt4pairIKS5_S8_EEE5countERSC_
FNDA:6,_ZNKSt3mapINSt7__cxx1112basic_stringIcSt11char_traitsIcESaIcEEEN7testing8internal12CodeLocationESt4lessIS5_ESaISt4pairIKS5_S8_EEE5countERSC_
DA:183,1
DA:300,1
DA:381,3
DA:382,3
DA:814,3
DA:815,3
DA:1193,3
DA:1194,3
DA:1214,6
DA:1215,6
BRDA:1215,0,0,6
BRDA:1215,0,1,0
BRDA:1215,0,2,0
BRDA:1215,0,3,6
end_of_record
SF:/usr/include/c++/9/bits/char_traits.h
FN:329,_ZNSt11char_traitsIcE6lengthEPKc
FNDA:0,_ZNSt11char_traitsIcE6lengthEPKc
FN:361,_ZNSt11char_traitsIcE4copyEPcPKcm
FNDA:0,_ZNSt11char_traitsIcE4copyEPcPKcm
DA:329,0
DA:335,0
DA:361,0
DA:363,0
BRDA:363,0,0,-
BRDA:363,0,1,-
DA:364,0
DA:365,0
end_of_record
SF:/usr/include/c++/9/bits/basic_string.h
FN:243,_ZNSt7__cxx1112basic_stringIcSt11char_traitsIcESaIcEE16_M_construct_auxIPcEEvT_S7_St12__false_type
FNDA:0,_ZNSt7__cxx1112basic_stringIcSt11char_traitsIcESaIcEE16_M_construct_auxIPcEEvT_S7_St12__false_type
FN:243,_ZNSt7__cxx1112basic_stringIcSt11char_traitsIcESaIcEE16_M_construct_auxIPKcEEvT_S8_St12__false_type
FNDA:8,_ZNSt7__cxx1112basic_stringIcSt11char_traitsIcESaIcEE16_M_construct_auxIPKcEEvT_S8_St12__false_type
FN:263,_ZNSt7__cxx1112basic_stringIcSt11char_traitsIcESaIcEE12_M_constructIPcEEvT_S7_
FNDA:0,_ZNSt7__cxx1112basic_stringIcSt11char_traitsIcESaIcEE12_M_constructIPcEEvT_S7_
FN:263,_ZNSt7__cxx1112basic_stringIcSt11char_traitsIcESaIcEE12_M_constructIPKcEEvT_S8_
FNDA:8,_ZNSt7__cxx1112basic_stringIcSt11char_traitsIcESaIcEE12_M_constructIPKcEEvT_S8_
FN:625,_ZNSt7__cxx1112basic_stringIcSt11char_traitsIcESaIcEEC2IPKcvEET_S8_RKS3_
FNDA:8,_ZNSt7__cxx1112basic_stringIcSt11char_traitsIcESaIcEEC2IPKcvEET_S8_RKS3_
FN:6085,_ZStplIcSt11char_traitsIcESaIcEENSt7__cxx1112basic_stringIT_T0_T1_EEOS8_RKS8_
FNDA:12,_ZStplIcSt11char_traitsIcESaIcEENSt7__cxx1112basic_stringIT_T0_T1_EEOS8_RKS8_
FN:6121,_ZStplIcSt11char_traitsIcESaIcEENSt7__cxx1112basic_stringIT_T0_T1_EEOS8_PKS5_
FNDA:74,_ZStplIcSt11char_traitsIcESaIcEENSt7__cxx1112basic_stringIT_T0_T1_EEOS8_PKS5_
FN:6226,_ZStltIcSt11char_traitsIcESaIcEEbRKNSt7__cxx1112basic_stringIT_T0_T1_EESA_
FNDA:55,_ZStltIcSt11char_traitsIcESaIcEEbRKNSt7__cxx1112basic_stringIT_T0_T1_EESA_
DA:243,0
DA:247,0
BRDA:247,0,0,-
BRDA:247,0,1,-
DA:248,0
DA:243,8
DA:247,8
BRDA:247,0,0,8
BRDA:247,0,1,0
DA:248,8
DA:263,0
DA:266,0
BRDA:266,0,0,-
BRDA:266,0,1,-
DA:267,0
DA:263,8
DA:266,8
BRDA:266,0,0,8
BRDA:266,0,1,0
DA:267,8
DA:625,8
DA:627,8
DA:628,8
BRDA:628,0,0,8
BRDA:628,0,1,0
DA:6085,12
DA:6087,12
DA:6121,74
DA:6123,74
DA:6226,55
DA:6229,55
end_of_record
SF:/usr/include/c++/9/ext/type_traits.h
FN:152,_ZN9__gnu_cxx17__is_null_pointerIcEEbPT_
FNDA:0,_ZN9__gnu_cxx17__is_null_pointerIcEEbPT_
FN:152,_ZN9__gnu_cxx17__is_null_pointerIKcEEbPT_
FNDA:145,_ZN9__gnu_cxx17__is_null_pointerIKcEEbPT_
DA:152,0
DA:153,0
DA:152,145
DA:153,145
end_of_record
SF:/usr/include/c++/9/bits/stl_construct.h
FN:74,_ZSt10_ConstructINSt7__cxx1112basic_stringIcSt11char_traitsIcESaIcEEEJS5_EEvPT_DpOT0_
FNDA:0,_ZSt10_ConstructINSt7__cxx1112basic_stringIcSt11char_traitsIcESaIcEEEJS5_EEvPT_DpOT0_
FN:97,_ZSt8_DestroyINSt7__cxx1112basic_stringIcSt11char_traitsIcESaIcEEEEvPT_
FNDA:13,_ZSt8_DestroyINSt7__cxx1112basic_stringIcSt11char_traitsIcESaIcEEEEvPT_
FN:105,_ZNSt12_Destroy_auxILb0EE9__destroyIPNSt7__cxx1112basic_stringIcSt11char_traitsIcESaIcEEEEEvT_S9_
FNDA:8,_ZNSt12_Destroy_auxILb0EE9__destroyIPNSt7__cxx1112basic_stringIcSt11char_traitsIcESaIcEEEEEvT_S9_
FN:127,_ZSt8_DestroyIPNSt7__cxx1112basic_stringIcSt11char_traitsIcESaIcEEEEvT_S7_
FNDA:8,_ZSt8_DestroyIPNSt7__cxx1112basic_stringIcSt11char_traitsIcESaIcEEEEvT_S7_
FN:203,_ZSt8_DestroyIPNSt7__cxx1112basic_stringIcSt11char_traitsIcESaIcEEES5_EvT_S7_RSaIT0_E
FNDA:8,_ZSt8_DestroyIPNSt7__cxx1112basic_stringIcSt11char_traitsIcESaIcEEES5_EvT_S7_RSaIT0_E
DA:74,0
DA:75,0
DA:97,13
DA:98,13
DA:105,21
DA:107,21
BRDA:107,0,0,13
BRDA:107,0,1,8
DA:108,13
DA:109,8
DA:127,8
DA:137,8
DA:138,8
DA:203,8
DA:206,8
DA:207,8
end_of_record
SF:/usr/include/c++/9/bits/stl_vector.h
FN:94,_ZNSt12_Vector_baseINSt7__cxx1112basic_stringIcSt11char_traitsIcESaIcEEESaIS5_EE17_Vector_impl_dataC2Ev
FNDA:8,_ZNSt12_Vector_baseINSt7__cxx1112basic_stringIcSt11char_traitsIcESaIcEEESaIS5_EE17_Vector_impl_dataC2Ev
FN:128,_ZNSt12_Vector_baseINSt7__cxx1112basic_stringIcSt11char_traitsIcESaIcEEESaIS5_EE12_Vector_implC2Ev
FNDA:6,_ZNSt12_Vector_baseINSt7__cxx1112basic_stringIcSt11char_traitsIcESaIcEEESaIS5_EE12_Vector_implC2Ev
FN:273,_ZNSt12_Vector_baseINSt7__cxx1112basic_stringIcSt11char_traitsIcESaIcEEESaIS5_EE19_M_get_Tp_allocatorEv
FNDA:34,_ZNSt12_Vector_baseINSt7__cxx1112basic_stringIcSt11char_traitsIcESaIcEEESaIS5_EE19_M_get_Tp_allocatorEv
FN:277,_ZNKSt12_Vector_baseINSt7__cxx1112basic_stringIcSt11char_traitsIcESaIcEEESaIS5_EE19_M_get_Tp_allocatorEv
FNDA:26,_ZNKSt12_Vector_baseINSt7__cxx1112basic_stringIcSt11char_traitsIcESaIcEEESaIS5_EE19_M_get_Tp_allocatorEv
FN:285,_ZNSt12_Vector_baseINSt7__cxx1112basic_stringIcSt11char_traitsIcESaIcEEESaIS5_EEC2Ev
FNDA:6,_ZNSt12_Vector_baseINSt7__cxx1112basic_stringIcSt11char_traitsIcESaIcEEESaIS5_EEC2Ev
FN:330,_ZNSt12_Vector_baseINSt7__cxx1112basic_stringIcSt11char_traitsIcESaIcEEESaIS5_EED2Ev
FNDA:8,_ZNSt12_Vector_baseINSt7__cxx1112basic_stringIcSt11char_traitsIcESaIcEEESaIS5_EED2Ev
FN:340,_ZNSt12_Vector_baseINSt7__cxx1112basic_stringIcSt11char_traitsIcESaIcEEESaIS5_EE11_M_allocateEm
FNDA:14,_ZNSt12_Vector_baseINSt7__cxx1112basic_stringIcSt11char_traitsIcESaIcEEESaIS5_EE11_M_allocateEm
FN:347,_ZNSt12_Vector_baseINSt7__cxx1112basic_stringIcSt11char_traitsIcESaIcEEESaIS5_EE13_M_deallocateEPS5_m
FNDA:20,_ZNSt12_Vector_baseINSt7__cxx1112basic_stringIcSt11char_traitsIcESaIcEEESaIS5_EE13_M_deallocateEPS5_m
FN:428,_ZNSt6vectorINSt7__cxx1112basic_stringIcSt11char_traitsIcESaIcEEESaIS5_EE19_S_nothrow_relocateESt17integral_constantIbLb1EE
FNDA:24,_ZNSt6vectorINSt7__cxx1112basic_stringIcSt11char_traitsIcESaIcEEESaIS5_EE19_S_nothrow_relocateESt17integral_constantIbLb1EE
FN:441,_ZNSt6vectorINSt7__cxx1112basic_stringIcSt11char_traitsIcESaIcEEESaIS5_EE15_S_use_relocateEv
FNDA:24,_ZNSt6vectorINSt7__cxx1112basic_stringIcSt11char_traitsIcESaIcEEESaIS5_EE15_S_use_relocateEv
FN:450,_ZNSt6vectorINSt7__cxx1112basic_stringIcSt11char_traitsIcESaIcEEESaIS5_EE14_S_do_relocateEPS5_S8_S8_RS6_St17integral_constantIbLb1EE
FNDA:24,_ZNSt6vectorINSt7__cxx1112basic_stringIcSt11char_traitsIcESaIcEEESaIS5_EE14_S_do_relocateEPS5_S8_S8_RS6_St17integral_constantIbLb1EE
FN:462,_ZNSt6vectorINSt7__cxx1112basic_stringIcSt11char_traitsIcESaIcEEESaIS5_EE11_S_relocateEPS5_S8_S8_RS6_
FNDA:24,_ZNSt6vectorINSt7__cxx1112basic_stringIcSt11char_traitsIcESaIcEEESaIS5_EE11_S_relocateEPS5_S8_S8_RS6_
FN:484,_ZNSt6vectorINSt7__cxx1112basic_stringIcSt11char_traitsIcESaIcEEESaIS5_EEC2Ev
FNDA:6,_ZNSt6vectorINSt7__cxx1112basic_stringIcSt11char_traitsIcESaIcEEESaIS5_EEC2Ev
FN:675,_ZNSt6vectorINSt7__cxx1112basic_stringIcSt11char_traitsIcESaIcEEESaIS5_EED2Ev
FNDA:8,_ZNSt6vectorINSt7__cxx1112basic_stringIcSt11char_traitsIcESaIcEEESaIS5_EED2Ev
FN:808,_ZNSt6vectorINSt7__cxx1112basic_stringIcSt11char_traitsIcESaIcEEESaIS5_EE5beginEv
FNDA:13,_ZNSt6vectorINSt7__cxx1112basic_stringIcSt11char_traitsIcESaIcEEESaIS5_EE5beginEv
FN:826,_ZNSt6vectorINSt7__cxx1112basic_stringIcSt11char_traitsIcESaIcEEESaIS5_EE3endEv
FNDA:16,_ZNSt6vectorINSt7__cxx1112basic_stringIcSt11char_traitsIcESaIcEEESaIS5_EE3endEv
FN:915,_ZNKSt6vectorINSt7__cxx1112basic_stringIcSt11char_traitsIcESaIcEEESaIS5_EE4sizeEv
FNDA:52,_ZNKSt6vectorINSt7__cxx1112basic_stringIcSt11char_traitsIcESaIcEEESaIS5_EE4sizeEv
FN:920,_ZNKSt6vectorINSt7__cxx1112basic_stringIcSt11char_traitsIcESaIcEEESaIS5_EE8max_sizeEv
FNDA:24,_ZNKSt6vectorINSt7__cxx1112basic_stringIcSt11char_traitsIcESaIcEEESaIS5_EE8max_sizeEv
FN:1058,_ZNKSt6vectorINSt7__cxx1112basic_stringIcSt11char_traitsIcESaIcEEESaIS5_EEixEm
FNDA:12,_ZNKSt6vectorINSt7__cxx1112basic_stringIcSt11char_traitsIcESaIcEEESaIS5_EEixEm
FN:1200,_ZNSt6vectorINSt7__cxx1112basic_stringIcSt11char_traitsIcESaIcEEESaIS5_EE9push_backEOS5_
FNDA:12,_ZNSt6vectorINSt7__cxx1112basic_stringIcSt11char_traitsIcESaIcEEESaIS5_EE9push_backEOS5_
FN:1753,_ZNKSt6vectorINSt7__cxx1112basic_stringIcSt11char_traitsIcESaIcEEESaIS5_EE12_M_check_lenEmPKc
FNDA:12,_ZNKSt6vectorINSt7__cxx1112basic_stringIcSt11char_traitsIcESaIcEEESaIS5_EE12_M_check_lenEmPKc
FN:1773,_ZNSt6vectorINSt7__cxx1112basic_stringIcSt11char_traitsIcESaIcEEESaIS5_EE11_S_max_sizeERKS6_
FNDA:24,_ZNSt6vectorINSt7__cxx1112basic_stringIcSt11char_traitsIcESaIcEEESaIS5_EE11_S_max_sizeERKS6_
DA:94,8
DA:95,8
DA:96,8
DA:128,6
DA:130,6
DA:131,6
DA:273,34
DA:274,34
DA:277,26
DA:278,26
DA:285,6
DA:330,8
DA:332,8
DA:333,8
DA:334,8
DA:340,14
DA:343,14
BRDA:343,0,0,13
BRDA:343,0,1,1
DA:347,20
DA:350,20
BRDA:350,0,0,13
BRDA:350,0,1,7
DA:351,13
DA:352,20
DA:428,24
DA:433,24
DA:441,24
DA:446,24
DA:450,24
DA:453,24
DA:462,24
DA:466,24
DA:484,6
DA:675,8
DA:677,8
DA:678,8
DA:680,8
DA:808,13
DA:809,13
DA:826,16
DA:827,16
DA:915,52
DA:916,52
DA:920,24
DA:921,24
DA:1058,12
DA:1061,12
DA:1200,12
DA:1201,12
DA:1753,12
DA:1755,12
BRDA:1755,0,0,0
BRDA:1755,0,1,12
DA:1756,0
DA:1758,12
DA:1759,12
BRDA:1759,0,0,12
BRDA:1759,0,1,0
BRDA:1759,0,2,0
BRDA:1759,0,3,12
DA:1773,24
DA:1778,24
DA:1780,24
DA:1781,24
end_of_record
SF:/usr/include/c++/9/iostream
end_of_record
SF:/usr/include/c++/9/ext/alloc_traits.h
FN:97,_ZN9__gnu_cxx14__alloc_traitsISaIcEcE17_S_select_on_copyERKS1_
FNDA:0,_ZN9__gnu_cxx14__alloc_traitsISaIcEcE17_S_select_on_copyERKS1_
DA:97,0
DA:98,0
end_of_record
SF:/usr/include/c++/9/new
FN:173,_ZnwmPv
FNDA:67,_ZnwmPv
FN:179,_ZdlPvS_
FNDA:0,_ZdlPvS_
DA:173,67
DA:174,67
DA:179,0
end_of_record
SF:/usr/include/c++/9/bits/move.h
FN:47,_ZSt11__addressofINSt7__cxx1112basic_stringIcSt11char_traitsIcESaIcEEEEPT_RS6_
FNDA:35,_ZSt11__addressofINSt7__cxx1112basic_stringIcSt11char_traitsIcESaIcEEEEPT_RS6_
FN:74,_ZSt7forwardIPKcEOT_RNSt16remove_referenceIS2_E4typeE
FNDA:3,_ZSt7forwardIPKcEOT_RNSt16remove_referenceIS2_E4typeE
FN:74,_ZSt7forwardINSt7__cxx1112basic_stringIcSt11char_traitsIcESaIcEEEEOT_RNSt16remove_referenceIS6_E4typeE
FNDA:69,_ZSt7forwardINSt7__cxx1112basic_stringIcSt11char_traitsIcESaIcEEEEOT_RNSt16remove_referenceIS6_E4typeE
FN:74,_ZSt7forwardIRPSt18_Rb_tree_node_baseEOT_RNSt16remove_referenceIS3_E4typeE
FNDA:7,_ZSt7forwardIRPSt18_Rb_tree_node_baseEOT_RNSt16remove_referenceIS3_E4typeE
FN:74,_ZSt7forwardIRPSt13_Rb_tree_nodeISt4pairIKNSt7__cxx1112basic_stringIcSt11char_traitsIcESaIcEEEN7testing8internal12CodeLocationEEEEOT_RNSt16remove_referenceISG_E4typeE
FNDA:3,_ZSt7forwardIRPSt13_Rb_tree_nodeISt4pairIKNSt7__cxx1112basic_stringIcSt11char_traitsIcESaIcEEEN7testing8internal12CodeLocationEEEEOT_RNSt16remove_referenceISG_E4typeE
FN:74,_ZSt7forwardIbEOT_RNSt16remove_referenceIS0_E4typeE
FNDA:7,_ZSt7forwardIbEOT_RNSt16remove_referenceIS0_E4typeE
FN:74,_ZSt7forwardISt17_Rb_tree_iteratorISt4pairIKNSt7__cxx1112basic_stringIcSt11char_traitsIcESaIcEEEN7testing8internal12CodeLocationEEEEOT_RNSt16remove_referenceISE_E4typeE
FNDA:3,_ZSt7forwardISt17_Rb_tree_iteratorISt4pairIKNSt7__cxx1112basic_stringIcSt11char_traitsIcESaIcEEEN7testing8internal12CodeLocationEEEEOT_RNSt16remove_referenceISE_E4typeE
FN:74,_ZSt7forwardISt4pairIPKcN7testing8internal12CodeLocationEEEOT_RNSt16remove_referenceIS7_E4typeE
FNDA:18,_ZSt7forwardISt4pairIPKcN7testing8internal12CodeLocationEEEOT_RNSt16remove_referenceIS7_E4typeE
FN:74,_ZSt7forwardIN7testing8internal12CodeLocationEEOT_RNSt16remove_referenceIS3_E4typeE
FNDA:9,_ZSt7forwardIN7testing8internal12CodeLocationEEOT_RNSt16remove_referenceIS3_E4typeE
FN:74,_ZSt7forwardIRPKcEOT_RNSt16remove_referenceIS3_E4typeE
FNDA:6,_ZSt7forwardIRPKcEOT_RNSt16remove_referenceIS3_E4typeE
FN:99,_ZSt4moveIRPNSt7__cxx1112basic_stringIcSt11char_traitsIcESaIcEEEEONSt16remove_referenceIT_E4typeEOS9_
FNDA:0,_ZSt4moveIRPNSt7__cxx1112basic_stringIcSt11char_traitsIcESaIcEEEEONSt16remove_referenceIT_E4typeEOS9_
FN:99,_ZSt4moveIRPNSt7__cxx1118basic_stringstreamIcSt11char_traitsIcESaIcEEEEONSt16remove_referenceIT_E4typeEOS9_
FNDA:80,_ZSt4moveIRPNSt7__cxx1118basic_stringstreamIcSt11char_traitsIcESaIcEEEEONSt16remove_referenceIT_E4typeEOS9_
FN:99,_ZSt4moveIRNSt7__cxx1112basic_stringIcSt11char_traitsIcESaIcEEEEONSt16remove_referenceIT_E4typeEOS8_
FNDA:105,_ZSt4moveIRNSt7__cxx1112basic_stringIcSt11char_traitsIcESaIcEEEEONSt16remove_referenceIT_E4typeEOS8_
FN:99,_ZSt4moveIRSaIcEEONSt16remove_referenceIT_E4typeEOS3_
FNDA:0,_ZSt4moveIRSaIcEEONSt16remove_referenceIT_E4typeEOS3_
DA:47,35
DA:48,35
DA:74,3
DA:75,3
DA:74,69
DA:75,69
DA:74,7
DA:75,7
DA:74,3
DA:75,3
DA:74,7
DA:75,7
DA:74,3
DA:75,3
DA:74,18
DA:75,18
DA:74,9
DA:75,9
DA:74,6
DA:75,6
DA:99,0
DA:100,0
DA:99,80
DA:100,80
DA:99,105
DA:100,105
DA:99,0
DA:100,0
end_of_record
SF:/usr/local/include/gtest/internal/gtest-type-util.h
FN:55,_ZN7testing8internal31CanonicalizeForStdLibVersioningENSt7__cxx1112basic_stringIcSt11char_traitsIcESaIcEEE
FNDA:12,_ZN7testing8internal31CanonicalizeForStdLibVersioningENSt7__cxx1112basic_stringIcSt11char_traitsIcESaIcEEE
FN:69,_ZN7testing8internal11GetTypeNameB5cxx11ERKSt9type_info
FNDA:12,_ZN7testing8internal11GetTypeNameB5cxx11ERKSt9type_info
FN:93,_ZN7testing8internal11GetTypeNameI23PreCalculatedPrimeTableEENSt7__cxx1112basic_stringIcSt11char_traitsIcESaIcEEEv
FNDA:6,_ZN7testing8internal11GetTypeNameI23PreCalculatedPrimeTableEENSt7__cxx1112basic_stringIcSt11char_traitsIcESaIcEEEv
FN:93,_ZN7testing8internal11GetTypeNameI18OnTheFlyPrimeTableEENSt7__cxx1112basic_stringIcSt11char_traitsIcESaIcEEEv
FNDA:6,_ZN7testing8internal11GetTypeNameI18OnTheFlyPrimeTableEENSt7__cxx1112basic_stringIcSt11char_traitsIcESaIcEEEv
DA:55,12
DA:57,12
BRDA:57,0,0,0
BRDA:57,0,1,12
DA:58,0
DA:59,0
BRDA:59,0,0,-
BRDA:59,0,1,-
DA:61,0
DA:64,12
DA:69,12
DA:70,12
DA:72,12
DA:78,12
BRDA:78,0,0,12
BRDA:78,0,1,0
DA:79,12
BRDA:79,0,0,12
BRDA:79,0,1,0
BRDA:79,0,2,12
BRDA:79,0,3,0
DA:80,12
DA:81,24
BRDA:81,0,0,12
BRDA:81,0,1,0
BRDA:81,0,2,12
BRDA:81,0,3,0
DA:93,6
DA:95,6
DA:93,6
DA:95,6
end_of_record
SF:/workspaces/mock_test/type/TypeTest.cpp
FN:16,_ZN12_GLOBAL__N_116CreatePrimeTableI18OnTheFlyPrimeTableEEP10PrimeTablev
FNDA:6,_ZN12_GLOBAL__N_116CreatePrimeTableI18OnTheFlyPrimeTableEEP10PrimeTablev
FN:22,_ZN12_GLOBAL__N_116CreatePrimeTableI23PreCalculatedPrimeTableEEP10PrimeTablev
FNDA:6,_ZN12_GLOBAL__N_116CreatePrimeTableI23PreCalculatedPrimeTableEEP10PrimeTablev
FN:33,_ZN12_GLOBAL__N_114PrimeTableTestI23PreCalculatedPrimeTableEC2Ev
FNDA:6,_ZN12_GLOBAL__N_114PrimeTableTestI23PreCalculatedPrimeTableEC2Ev
FN:33,_ZN12_GLOBAL__N_114PrimeTableTestI18OnTheFlyPrimeTableEC2Ev
FNDA:6,_ZN12_GLOBAL__N_114PrimeTableTestI18OnTheFlyPrimeTableEC2Ev
FN:35,_ZN12_GLOBAL__N_114PrimeTableTestI23PreCalculatedPrimeTableED2Ev
FNDA:6,_ZN12_GLOBAL__N_114PrimeTableTestI23PreCalculatedPrimeTableED2Ev
FN:35,_ZN12_GLOBAL__N_114PrimeTableTestI18OnTheFlyPrimeTableED2Ev
FNDA:6,_ZN12_GLOBAL__N_114PrimeTableTestI18OnTheFlyPrimeTableED2Ev
FN:72,_ZN12_GLOBAL__N_144PrimeTableTest_ReturnsFalseForNonPrimes_TestI23PreCalculatedPrimeTableE8TestBodyEv
FNDA:1,_ZN12_GLOBAL__N_144PrimeTableTest_ReturnsFalseForNonPrimes_TestI23PreCalculatedPrimeTableE8TestBodyEv
FN:72,_ZN12_GLOBAL__N_144PrimeTableTest_ReturnsFalseForNonPrimes_TestI18OnTheFlyPrimeTableE8TestBodyEv
FNDA:1,_ZN12_GLOBAL__N_144PrimeTableTest_ReturnsFalseForNonPrimes_TestI18OnTheFlyPrimeTableE8TestBodyEv
FN:88,_ZN12_GLOBAL__N_140PrimeTableTest_ReturnsTrueForPrimes_TestI23PreCalculatedPrimeTableE8TestBodyEv
FNDA:1,_ZN12_GLOBAL__N_140PrimeTableTest_ReturnsTrueForPrimes_TestI23PreCalculatedPrimeTableE8TestBodyEv
FN:88,_ZN12_GLOBAL__N_140PrimeTableTest_ReturnsTrueForPrimes_TestI18OnTheFlyPrimeTableE8TestBodyEv
FNDA:1,_ZN12_GLOBAL__N_140PrimeTableTest_ReturnsTrueForPrimes_TestI18OnTheFlyPrimeTableE8TestBodyEv
FN:97,_ZN12_GLOBAL__N_135PrimeTableTest_CanGetNextPrime_TestI18OnTheFlyPrimeTableE8TestBodyEv
FNDA:1,_ZN12_GLOBAL__N_135PrimeTableTest_CanGetNextPrime_TestI18OnTheFlyPrimeTableE8TestBodyEv
FN:97,_ZN12_GLOBAL__N_135PrimeTableTest_CanGetNextPrime_TestI23PreCalculatedPrimeTableE8TestBodyEv
FNDA:1,_ZN12_GLOBAL__N_135PrimeTableTest_CanGetNextPrime_TestI23PreCalculatedPrimeTableE8TestBodyEv
FN:143,_ZN12_GLOBAL__N_128gtest_suite_PrimeTableTest2_24ReturnsFalseForNonPrimesI18OnTheFlyPrimeTableE8TestBodyEv
FNDA:1,_ZN12_GLOBAL__N_128gtest_suite_PrimeTableTest2_24ReturnsFalseForNonPrimesI18OnTheFlyPrimeTableE8TestBodyEv
FN:143,_ZN12_GLOBAL__N_128gtest_suite_PrimeTableTest2_24ReturnsFalseForNonPrimesI23PreCalculatedPrimeTableE8TestBodyEv
FNDA:1,_ZN12_GLOBAL__N_128gtest_suite_PrimeTableTest2_24ReturnsFalseForNonPrimesI23PreCalculatedPrimeTableE8TestBodyEv
FN:152,_ZN12_GLOBAL__N_128gtest_suite_PrimeTableTest2_20ReturnsTrueForPrimesI18OnTheFlyPrimeTableE8TestBodyEv
FNDA:1,_ZN12_GLOBAL__N_128gtest_suite_PrimeTableTest2_20ReturnsTrueForPrimesI18OnTheFlyPrimeTableE8TestBodyEv
FN:152,_ZN12_GLOBAL__N_128gtest_suite_PrimeTableTest2_20ReturnsTrueForPrimesI23PreCalculatedPrimeTableE8TestBodyEv
FNDA:1,_ZN12_GLOBAL__N_128gtest_suite_PrimeTableTest2_20ReturnsTrueForPrimesI23PreCalculatedPrimeTableE8TestBodyEv
FN:161,_ZN12_GLOBAL__N_128gtest_suite_PrimeTableTest2_15CanGetNextPrimeI18OnTheFlyPrimeTableE8TestBodyEv
FNDA:1,_ZN12_GLOBAL__N_128gtest_suite_PrimeTableTest2_15CanGetNextPrimeI18OnTheFlyPrimeTableE8TestBodyEv
FN:161,_ZN12_GLOBAL__N_128gtest_suite_PrimeTableTest2_15CanGetNextPrimeI23PreCalculatedPrimeTableE8TestBodyEv
FNDA:1,_ZN12_GLOBAL__N_128gtest_suite_PrimeTableTest2_15CanGetNextPrimeI23PreCalculatedPrimeTableE8TestBodyEv
DA:16,6
DA:17,6
DA:22,6
DA:23,6
BRDA:23,0,0,6
BRDA:23,0,1,0
DA:33,6
BRDA:33,0,0,6
BRDA:33,0,1,0
DA:33,6
BRDA:33,0,0,6
BRDA:33,0,1,0
DA:35,6
BRDA:35,0,0,6
BRDA:35,0,1,0
DA:35,6
BRDA:35,0,0,6
BRDA:35,0,1,0
DA:72,1
DA:80,1
BRDA:80,0,0,1
BRDA:80,0,1,0
BRDA:80,0,2,0
BRDA:80,0,3,1
BRDA:80,0,4,0
BRDA:80,0,5,0
BRDA:80,0,6,0
BRDA:80,0,7,0
BRDA:80,0,8,0
BRDA:80,0,9,0
BRDA:80,0,10,0
BRDA:80,0,11,0
DA:81,1
BRDA:81,0,0,1
BRDA:81,0,1,0
BRDA:81,0,2,0
BRDA:81,0,3,1
BRDA:81,0,4,0
BRDA:81,0,5,0
BRDA:81,0,6,0
BRDA:81,0,7,0
BRDA:81,0,8,0
BRDA:81,0,9,0
BRDA:81,0,10,0
BRDA:81,0,11,0
DA:82,1
BRDA:82,0,0,1
BRDA:82,0,1,0
BRDA:82,0,2,0
BRDA:82,0,3,1
BRDA:82,0,4,0
BRDA:82,0,5,0
BRDA:82,0,6,0
BRDA:82,0,7,0
BRDA:82,0,8,0
BRDA:82,0,9,0
BRDA:82,0,10,0
BRDA:82,0,11,0
DA:83,1
BRDA:83,0,0,1
BRDA:83,0,1,0
BRDA:83,0,2,0
BRDA:83,0,3,1
BRDA:83,0,4,0
BRDA:83,0,5,0
BRDA:83,0,6,0
BRDA:83,0,7,0
BRDA:83,0,8,0
BRDA:83,0,9,0
BRDA:83,0,10,0
BRDA:83,0,11,0
DA:84,1
BRDA:84,0,0,1
BRDA:84,0,1,0
BRDA:84,0,2,0
BRDA:84,0,3,1
BRDA:84,0,4,0
BRDA:84,0,5,0
BRDA:84,0,6,0
BRDA:84,0,7,0
BRDA:84,0,8,0
BRDA:84,0,9,0
BRDA:84,0,10,0
BRDA:84,0,11,0
DA:85,1
BRDA:85,0,0,1
BRDA:85,0,1,0
BRDA:85,0,2,0
BRDA:85,0,3,1
BRDA:85,0,4,0
BRDA:85,0,5,0
BRDA:85,0,6,0
BRDA:85,0,7,0
BRDA:85,0,8,0
BRDA:85,0,9,0
BRDA:85,0,10,0
BRDA:85,0,11,0
DA:86,1
DA:72,1
DA:80,1
BRDA:80,0,0,1
BRDA:80,0,1,0
BRDA:80,0,2,0
BRDA:80,0,3,1
BRDA:80,0,4,0
BRDA:80,0,5,0
BRDA:80,0,6,0
BRDA:80,0,7,0
BRDA:80,0,8,0
BRDA:80,0,9,0
BRDA:80,0,10,0
BRDA:80,0,11,0
DA:81,1
BRDA:81,0,0,1
BRDA:81,0,1,0
BRDA:81,0,2,0
BRDA:81,0,3,1
BRDA:81,0,4,0
BRDA:81,0,5,0
BRDA:81,0,6,0
BRDA:81,0,7,0
BRDA:81,0,8,0
BRDA:81,0,9,0
BRDA:81,0,10,0
BRDA:81,0,11,0
DA:82,1
BRDA:82,0,0,1
BRDA:82,0,1,0
BRDA:82,0,2,0
BRDA:82,0,3,1
BRDA:82,0,4,0
BRDA:82,0,5,0
BRDA:82,0,6,0
BRDA:82,0,7,0
BRDA:82,0,8,0
BRDA:82,0,9,0
BRDA:82,0,10,0
BRDA:82,0,11,0
DA:83,1
BRDA:83,0,0,1
BRDA:83,0,1,0
BRDA:83,0,2,0
BRDA:83,0,3,1
BRDA:83,0,4,0
BRDA:83,0,5,0
BRDA:83,0,6,0
BRDA:83,0,7,0
BRDA:83,0,8,0
BRDA:83,0,9,0
BRDA:83,0,10,0
BRDA:83,0,11,0
DA:84,1
BRDA:84,0,0,1
BRDA:84,0,1,0
BRDA:84,0,2,0
BRDA:84,0,3,1
BRDA:84,0,4,0
BRDA:84,0,5,0
BRDA:84,0,6,0
BRDA:84,0,7,0
BRDA:84,0,8,0
BRDA:84,0,9,0
BRDA:84,0,10,0
BRDA:84,0,11,0
DA:85,1
BRDA:85,0,0,1
BRDA:85,0,1,0
BRDA:85,0,2,0
BRDA:85,0,3,1
BRDA:85,0,4,0
BRDA:85,0,5,0
BRDA:85,0,6,0
BRDA:85,0,7,0
BRDA:85,0,8,0
BRDA:85,0,9,0
BRDA:85,0,10,0
BRDA:85,0,11,0
DA:86,1
DA:88,1
DA:89,1
BRDA:89,0,0,1
BRDA:89,0,1,0
BRDA:89,0,2,0
BRDA:89,0,3,1
BRDA:89,0,4,0
BRDA:89,0,5,0
BRDA:89,0,6,0
BRDA:89,0,7,0
BRDA:89,0,8,0
BRDA:89,0,9,0
BRDA:89,0,10,0
BRDA:89,0,11,0
DA:90,1
BRDA:90,0,0,1
BRDA:90,0,1,0
BRDA:90,0,2,0
BRDA:90,0,3,1
BRDA:90,0,4,0
BRDA:90,0,5,0
BRDA:90,0,6,0
BRDA:90,0,7,0
BRDA:90,0,8,0
BRDA:90,0,9,0
BRDA:90,0,10,0
BRDA:90,0,11,0
DA:91,1
BRDA:91,0,0,1
BRDA:91,0,1,0
BRDA:91,0,2,0
BRDA:91,0,3,1
BRDA:91,0,4,0
BRDA:91,0,5,0
BRDA:91,0,6,0
BRDA:91,0,7,0
BRDA:91,0,8,0
BRDA:91,0,9,0
BRDA:91,0,10,0
BRDA:91,0,11,0
DA:92,1
BRDA:92,0,0,1
BRDA:92,0,1,0
BRDA:92,0,2,0
BRDA:92,0,3,1
BRDA:92,0,4,0
BRDA:92,0,5,0
BRDA:92,0,6,0
BRDA:92,0,7,0
BRDA:92,0,8,0
BRDA:92,0,9,0
BRDA:92,0,10,0
BRDA:92,0,11,0
DA:93,1
BRDA:93,0,0,1
BRDA:93,0,1,0
BRDA:93,0,2,0
BRDA:93,0,3,1
BRDA:93,0,4,0
BRDA:93,0,5,0
BRDA:93,0,6,0
BRDA:93,0,7,0
BRDA:93,0,8,0
BRDA:93,0,9,0
BRDA:93,0,10,0
BRDA:93,0,11,0
DA:94,1
BRDA:94,0,0,1
BRDA:94,0,1,0
BRDA:94,0,2,0
BRDA:94,0,3,1
BRDA:94,0,4,0
BRDA:94,0,5,0
BRDA:94,0,6,0
BRDA:94,0,7,0
BRDA:94,0,8,0
BRDA:94,0,9,0
BRDA:94,0,10,0
BRDA:94,0,11,0
DA:95,1
DA:88,1
DA:89,1
BRDA:89,0,0,1
BRDA:89,0,1,0
BRDA:89,0,2,0
BRDA:89,0,3,1
BRDA:89,0,4,0
BRDA:89,0,5,0
BRDA:89,0,6,0
BRDA:89,0,7,0
BRDA:89,0,8,0
BRDA:89,0,9,0
BRDA:89,0,10,0
BRDA:89,0,11,0
DA:90,1
BRDA:90,0,0,1
BRDA:90,0,1,0
BRDA:90,0,2,0
BRDA:90,0,3,1
BRDA:90,0,4,0
BRDA:90,0,5,0
BRDA:90,0,6,0
BRDA:90,0,7,0
BRDA:90,0,8,0
BRDA:90,0,9,0
BRDA:90,0,10,0
BRDA:90,0,11,0
DA:91,1
BRDA:91,0,0,1
BRDA:91,0,1,0
BRDA:91,0,2,0
BRDA:91,0,3,1
BRDA:91,0,4,0
BRDA:91,0,5,0
BRDA:91,0,6,0
BRDA:91,0,7,0
BRDA:91,0,8,0
BRDA:91,0,9,0
BRDA:91,0,10,0
BRDA:91,0,11,0
DA:92,1
BRDA:92,0,0,1
BRDA:92,0,1,0
BRDA:92,0,2,0
BRDA:92,0,3,1
BRDA:92,0,4,0
BRDA:92,0,5,0
BRDA:92,0,6,0
BRDA:92,0,7,0
BRDA:92,0,8,0
BRDA:92,0,9,0
BRDA:92,0,10,0
BRDA:92,0,11,0
DA:93,1
BRDA:93,0,0,1
BRDA:93,0,1,0
BRDA:93,0,2,0
BRDA:93,0,3,1
BRDA:93,0,4,0
BRDA:93,0,5,0
BRDA:93,0,6,0
BRDA:93,0,7,0
BRDA:93,0,8,0
BRDA:93,0,9,0
BRDA:93,0,10,0
BRDA:93,0,11,0
DA:94,1
BRDA:94,0,0,1
BRDA:94,0,1,0
BRDA:94,0,2,0
BRDA:94,0,3,1
BRDA:94,0,4,0
BRDA:94,0,5,0
BRDA:94,0,6,0
BRDA:94,0,7,0
BRDA:94,0,8,0
BRDA:94,0,9,0
BRDA:94,0,10,0
BRDA:94,0,11,0
DA:95,1
DA:97,1
DA:98,1
BRDA:98,0,0,1
BRDA:98,0,1,0
BRDA:98,0,2,1
BRDA:98,0,3,0
BRDA:98,0,4,0
BRDA:98,0,5,1
BRDA:98,0,6,0
BRDA:98,0,7,0
BRDA:98,0,8,0
BRDA:98,0,9,0
BRDA:98,0,10,0
BRDA:98,0,11,0
DA:99,1
BRDA:99,0,0,1
BRDA:99,0,1,0
BRDA:99,0,2,1
BRDA:99,0,3,0
BRDA:99,0,4,0
BRDA:99,0,5,1
BRDA:99,0,6,0
BRDA:99,0,7,0
BRDA:99,0,8,0
BRDA:99,0,9,0
BRDA:99,0,10,0
BRDA:99,0,11,0
DA:100,1
BRDA:100,0,0,1
BRDA:100,0,1,0
BRDA:100,0,2,1
BRDA:100,0,3,0
BRDA:100,0,4,0
BRDA:100,0,5,1
BRDA:100,0,6,0
BRDA:100,0,7,0
BRDA:100,0,8,0
BRDA:100,0,9,0
BRDA:100,0,10,0
BRDA:100,0,11,0
DA:101,1
BRDA:101,0,0,1
BRDA:101,0,1,0
BRDA:101,0,2,1
BRDA:101,0,3,0
BRDA:101,0,4,0
BRDA:101,0,5,1
BRDA:101,0,6,0
BRDA:101,0,7,0
BRDA:101,0,8,0
BRDA:101,0,9,0
BRDA:101,0,10,0
BRDA:101,0,11,0
DA:102,1
BRDA:102,0,0,1
BRDA:102,0,1,0
BRDA:102,0,2,1
BRDA:102,0,3,0
BRDA:102,0,4,0
BRDA:102,0,5,1
BRDA:102,0,6,0
BRDA:102,0,7,0
BRDA:102,0,8,0
BRDA:102,0,9,0
BRDA:102,0,10,0
BRDA:102,0,11,0
DA:103,1
BRDA:103,0,0,1
BRDA:103,0,1,0
BRDA:103,0,2,1
BRDA:103,0,3,0
BRDA:103,0,4,0
BRDA:103,0,5,1
BRDA:103,0,6,0
BRDA:103,0,7,0
BRDA:103,0,8,0
BRDA:103,0,9,0
BRDA:103,0,10,0
BRDA:103,0,11,0
DA:104,1
DA:97,1
DA:98,1
BRDA:98,0,0,1
BRDA:98,0,1,0
BRDA:98,0,2,1
BRDA:98,0,3,0
BRDA:98,0,4,0
BRDA:98,0,5,1
BRDA:98,0,6,0
BRDA:98,0,7,0
BRDA:98,0,8,0
BRDA:98,0,9,0
BRDA:98,0,10,0
BRDA:98,0,11,0
DA:99,1
BRDA:99,0,0,1
BRDA:99,0,1,0
BRDA:99,0,2,1
BRDA:99,0,3,0
BRDA:99,0,4,0
BRDA:99,0,5,1
BRDA:99,0,6,0
BRDA:99,0,7,0
BRDA:99,0,8,0
BRDA:99,0,9,0
BRDA:99,0,10,0
BRDA:99,0,11,0
DA:100,1
BRDA:100,0,0,1
BRDA:100,0,1,0
BRDA:100,0,2,1
BRDA:100,0,3,0
BRDA:100,0,4,0
BRDA:100,0,5,1
BRDA:100,0,6,0
BRDA:100,0,7,0
BRDA:100,0,8,0
BRDA:100,0,9,0
BRDA:100,0,10,0
BRDA:100,0,11,0
DA:101,1
BRDA:101,0,0,1
BRDA:101,0,1,0
BRDA:101,0,2,1
BRDA:101,0,3,0
BRDA:101,0,4,0
BRDA:101,0,5,1
BRDA:101,0,6,0
BRDA:101,0,7,0
BRDA:101,0,8,0
BRDA:101,0,9,0
BRDA:101,0,10,0
BRDA:101,0,11,0
DA:102,1
BRDA:102,0,0,1
BRDA:102,0,1,0
BRDA:102,0,2,1
BRDA:102,0,3,0
BRDA:102,0,4,0
BRDA:102,0,5,1
BRDA:102,0,6,0
BRDA:102,0,7,0
BRDA:102,0,8,0
BRDA:102,0,9,0
BRDA:102,0,10,0
BRDA:102,0,11,0
DA:103,1
BRDA:103,0,0,1
BRDA:103,0,1,0
BRDA:103,0,2,1
BRDA:103,0,3,0
BRDA:103,0,4,0
BRDA:103,0,5,1
BRDA:103,0,6,0
BRDA:103,0,7,0
BRDA:103,0,8,0
BRDA:103,0,9,0
BRDA:103,0,10,0
BRDA:103,0,11,0
DA:104,1
DA:143,1
DA:144,1
BRDA:144,0,0,1
BRDA:144,0,1,0
BRDA:144,0,2,0
BRDA:144,0,3,1
BRDA:144,0,4,0
BRDA:144,0,5,0
BRDA:144,0,6,0
BRDA:144,0,7,0
BRDA:144,0,8,0
BRDA:144,0,9,0
BRDA:144,0,10,0
BRDA:144,0,11,0
DA:145,1
BRDA:145,0,0,1
BRDA:145,0,1,0
BRDA:145,0,2,0
BRDA:145,0,3,1
BRDA:145,0,4,0
BRDA:145,0,5,0
BRDA:145,0,6,0
BRDA:145,0,7,0
BRDA:145,0,8,0
BRDA:145,0,9,0
BRDA:145,0,10,0
BRDA:145,0,11,0
DA:146,1
BRDA:146,0,0,1
BRDA:146,0,1,0
BRDA:146,0,2,0
BRDA:146,0,3,1
BRDA:146,0,4,0
BRDA:146,0,5,0
BRDA:146,0,6,0
BRDA:146,0,7,0
BRDA:146,0,8,0
BRDA:146,0,9,0
BRDA:146,0,10,0
BRDA:146,0,11,0
DA:147,1
BRDA:147,0,0,1
BRDA:147,0,1,0
BRDA:147,0,2,0
BRDA:147,0,3,1
BRDA:147,0,4,0
BRDA:147,0,5,0
BRDA:147,0,6,0
BRDA:147,0,7,0
BRDA:147,0,8,0
BRDA:147,0,9,0
BRDA:147,0,10,0
BRDA:147,0,11,0
DA:148,1
BRDA:148,0,0,1
BRDA:148,0,1,0
BRDA:148,0,2,0
BRDA:148,0,3,1
BRDA:148,0,4,0
BRDA:148,0,5,0
BRDA:148,0,6,0
BRDA:148,0,7,0
BRDA:148,0,8,0
BRDA:148,0,9,0
BRDA:148,0,10,0
BRDA:148,0,11,0
DA:149,1
BRDA:149,0,0,1
BRDA:149,0,1,0
BRDA:149,0,2,0
BRDA:149,0,3,1
BRDA:149,0,4,0
BRDA:149,0,5,0
BRDA:149,0,6,0
BRDA:149,0,7,0
BRDA:149,0,8,0
BRDA:149,0,9,0
BRDA:149,0,10,0
BRDA:149,0,11,0
DA:150,1
DA:143,1
DA:144,1
BRDA:144,0,0,1
BRDA:144,0,1,0
BRDA:144,0,2,0
BRDA:144,0,3,1
BRDA:144,0,4,0
BRDA:144,0,5,0
BRDA:144,0,6,0
BRDA:144,0,7,0
BRDA:144,0,8,0
BRDA:144,0,9,0
BRDA:144,0,10,0
BRDA:144,0,11,0
DA:145,1
BRDA:145,0,0,1
BRDA:145,0,1,0
BRDA:145,0,2,0
BRDA:145,0,3,1
BRDA:145,0,4,0
BRDA:145,0,5,0
BRDA:145,0,6,0
BRDA:145,0,7,0
BRDA:145,0,8,0
BRDA:145,0,9,0
BRDA:145,0,10,0
BRDA:145,0,11,0
DA:146,1
BRDA:146,0,0,1
BRDA:146,0,1,0
BRDA:146,0,2,0
BRDA:146,0,3,1
BRDA:146,0,4,0
BRDA:146,0,5,0
BRDA:146,0,6,0
BRDA:146,0,7,0
BRDA:146,0,8,0
BRDA:146,0,9,0
BRDA:146,0,10,0
BRDA:146,0,11,0
DA:147,1
BRDA:147,0,0,1
BRDA:147,0,1,0
BRDA:147,0,2,0
BRDA:147,0,3,1
BRDA:147,0,4,0
BRDA:147,0,5,0
BRDA:147,0,6,0
BRDA:147,0,7,0
BRDA:147,0,8,0
BRDA:147,0,9,0
BRDA:147,0,10,0
BRDA:147,0,11,0
DA:148,1
BRDA:148,0,0,1
BRDA:148,0,1,0
BRDA:148,0,2,0
BRDA:148,0,3,1
BRDA:148,0,4,0
BRDA:148,0,5,0
BRDA:148,0,6,0
BRDA:148,0,7,0
BRDA:148,0,8,0
BRDA:148,0,9,0
BRDA:148,0,10,0
BRDA:148,0,11,0
DA:149,1
BRDA:149,0,0,1
BRDA:149,0,1,0
BRDA:149,0,2,0
BRDA:149,0,3,1
BRDA:149,0,4,0
BRDA:149,0,5,0
BRDA:149,0,6,0
BRDA:149,0,7,0
BRDA:149,0,8,0
BRDA:149,0,9,0
BRDA:149,0,10,0
BRDA:149,0,11,0
DA:150,1
DA:152,1
DA:153,1
BRDA:153,0,0,1
BRDA:153,0,1,0
BRDA:153,0,2,0
BRDA:153,0,3,1
BRDA:153,0,4,0
BRDA:153,0,5,0
BRDA:153,0,6,0
BRDA:153,0,7,0
BRDA:153,0,8,0
BRDA:153,0,9,0
BRDA:153,0,10,0
BRDA:153,0,11,0
DA:154,1
BRDA:154,0,0,1
BRDA:154,0,1,0
BRDA:154,0,2,0
BRDA:154,0,3,1
BRDA:154,0,4,0
BRDA:154,0,5,0
BRDA:154,0,6,0
BRDA:154,0,7,0
BRDA:154,0,8,0
BRDA:154,0,9,0
BRDA:154,0,10,0
BRDA:154,0,11,0
DA:155,1
BRDA:155,0,0,1
BRDA:155,0,1,0
BRDA:155,0,2,0
BRDA:155,0,3,1
BRDA:155,0,4,0
BRDA:155,0,5,0
BRDA:155,0,6,0
BRDA:155,0,7,0
BRDA:155,0,8,0
BRDA:155,0,9,0
BRDA:155,0,10,0
BRDA:155,0,11,0
DA:156,1
BRDA:156,0,0,1
BRDA:156,0,1,0
BRDA:156,0,2,0
BRDA:156,0,3,1
BRDA:156,0,4,0
BRDA:156,0,5,0
BRDA:156,0,6,0
BRDA:156,0,7,0
BRDA:156,0,8,0
BRDA:156,0,9,0
BRDA:156,0,10,0
BRDA:156,0,11,0
DA:157,1
BRDA:157,0,0,1
BRDA:157,0,1,0
BRDA:157,0,2,0
BRDA:157,0,3,1
BRDA:157,0,4,0
BRDA:157,0,5,0
BRDA:157,0,6,0
BRDA:157,0,7,0
BRDA:157,0,8,0
BRDA:157,0,9,0
BRDA:157,0,10,0
BRDA:157,0,11,0
DA:158,1
BRDA:158,0,0,1
BRDA:158,0,1,0
BRDA:158,0,2,0
BRDA:158,0,3,1
BRDA:158,0,4,0
BRDA:158,0,5,0
BRDA:158,0,6,0
BRDA:158,0,7,0
BRDA:158,0,8,0
BRDA:158,0,9,0
BRDA:158,0,10,0
BRDA:158,0,11,0
DA:159,1
DA:152,1
DA:153,1
BRDA:153,0,0,1
BRDA:153,0,1,0
BRDA:153,0,2,0
BRDA:153,0,3,1
BRDA:153,0,4,0
BRDA:153,0,5,0
BRDA:153,0,6,0
BRDA:153,0,7,0
BRDA:153,0,8,0
BRDA:153,0,9,0
BRDA:153,0,10,0
BRDA:153,0,11,0
DA:154,1
BRDA:154,0,0,1
BRDA:154,0,1,0
BRDA:154,0,2,0
BRDA:154,0,3,1
BRDA:154,0,4,0
BRDA:154,0,5,0
BRDA:154,0,6,0
BRDA:154,0,7,0
BRDA:154,0,8,0
BRDA:154,0,9,0
BRDA:154,0,10,0
BRDA:154,0,11,0
DA:155,1
BRDA:155,0,0,1
BRDA:155,0,1,0
BRDA:155,0,2,0
BRDA:155,0,3,1
BRDA:155,0,4,0
BRDA:155,0,5,0
BRDA:155,0,6,0
BRDA:155,0,7,0
BRDA:155,0,8,0
BRDA:155,0,9,0
BRDA:155,0,10,0
BRDA:155,0,11,0
DA:156,1
BRDA:156,0,0,1
BRDA:156,0,1,0
BRDA:156,0,2,0
BRDA:156,0,3,1
BRDA:156,0,4,0
BRDA:156,0,5,0
BRDA:156,0,6,0
BRDA:156,0,7,0
BRDA:156,0,8,0
BRDA:156,0,9,0
BRDA:156,0,10,0
BRDA:156,0,11,0
DA:157,1
BRDA:157,0,0,1
BRDA:157,0,1,0
BRDA:157,0,2,0
BRDA:157,0,3,1
BRDA:157,0,4,0
BRDA:157,0,5,0
BRDA:157,0,6,0
BRDA:157,0,7,0
BRDA:157,0,8,0
BRDA:157,0,9,0
BRDA:157,0,10,0
BRDA:157,0,11,0
DA:158,1
BRDA:158,0,0,1
BRDA:158,0,1,0
BRDA:158,0,2,0
BRDA:158,0,3,1
BRDA:158,0,4,0
BRDA:158,0,5,0
BRDA:158,0,6,0
BRDA:158,0,7,0
BRDA:158,0,8,0
BRDA:158,0,9,0
BRDA:158,0,10,0
BRDA:158,0,11,0
DA:159,1
DA:161,1
DA:162,1
BRDA:162,0,0,1
BRDA:162,0,1,0
BRDA:162,0,2,1
BRDA:162,0,3,0
BRDA:162,0,4,0
BRDA:162,0,5,1
BRDA:162,0,6,0
BRDA:162,0,7,0
BRDA:162,0,8,0
BRDA:162,0,9,0
BRDA:162,0,10,0
BRDA:162,0,11,0
DA:163,1
BRDA:163,0,0,1
BRDA:163,0,1,0
BRDA:163,0,2,1
BRDA:163,0,3,0
BRDA:163,0,4,0
BRDA:163,0,5,1
BRDA:163,0,6,0
BRDA:163,0,7,0
BRDA:163,0,8,0
BRDA:163,0,9,0
BRDA:163,0,10,0
BRDA:163,0,11,0
DA:164,1
BRDA:164,0,0,1
BRDA:164,0,1,0
BRDA:164,0,2,1
BRDA:164,0,3,0
BRDA:164,0,4,0
BRDA:164,0,5,1
BRDA:164,0,6,0
BRDA:164,0,7,0
BRDA:164,0,8,0
BRDA:164,0,9,0
BRDA:164,0,10,0
BRDA:164,0,11,0
DA:165,1
BRDA:165,0,0,1
BRDA:165,0,1,0
BRDA:165,0,2,1
BRDA:165,0,3,0
BRDA:165,0,4,0
BRDA:165,0,5,1
BRDA:165,0,6,0
BRDA:165,0,7,0
BRDA:165,0,8,0
BRDA:165,0,9,0
BRDA:165,0,10,0
BRDA:165,0,11,0
DA:166,1
BRDA:166,0,0,1
BRDA:166,0,1,0
BRDA:166,0,2,1
BRDA:166,0,3,0
BRDA:166,0,4,0
BRDA:166,0,5,1
BRDA:166,0,6,0
BRDA:166,0,7,0
BRDA:166,0,8,0
BRDA:166,0,9,0
BRDA:166,0,10,0
BRDA:166,0,11,0
DA:167,1
BRDA:167,0,0,1
BRDA:167,0,1,0
BRDA:167,0,2,1
BRDA:167,0,3,0
BRDA:167,0,4,0
BRDA:167,0,5,1
BRDA:167,0,6,0
BRDA:167,0,7,0
BRDA:167,0,8,0
BRDA:167,0,9,0
BRDA:167,0,10,0
BRDA:167,0,11,0
DA:168,1
DA:161,1
DA:162,1
BRDA:162,0,0,1
BRDA:162,0,1,0
BRDA:162,0,2,1
BRDA:162,0,3,0
BRDA:162,0,4,0
BRDA:162,0,5,1
BRDA:162,0,6,0
BRDA:162,0,7,0
BRDA:162,0,8,0
BRDA:162,0,9,0
BRDA:162,0,10,0
BRDA:162,0,11,0
DA:163,1
BRDA:163,0,0,1
BRDA:163,0,1,0
BRDA:163,0,2,1
BRDA:163,0,3,0
BRDA:163,0,4,0
BRDA:163,0,5,1
BRDA:163,0,6,0
BRDA:163,0,7,0
BRDA:163,0,8,0
BRDA:163,0,9,0
BRDA:163,0,10,0
BRDA:163,0,11,0
DA:164,1
BRDA:164,0,0,1
BRDA:164,0,1,0
BRDA:164,0,2,1
BRDA:164,0,3,0
BRDA:164,0,4,0
BRDA:164,0,5,1
BRDA:164,0,6,0
BRDA:164,0,7,0
BRDA:164,0,8,0
BRDA:164,0,9,0
BRDA:164,0,10,0
BRDA:164,0,11,0
DA:165,1
BRDA:165,0,0,1
BRDA:165,0,1,0
BRDA:165,0,2,1
BRDA:165,0,3,0
BRDA:165,0,4,0
BRDA:165,0,5,1
BRDA:165,0,6,0
BRDA:165,0,7,0
BRDA:165,0,8,0
BRDA:165,0,9,0
BRDA:165,0,10,0
BRDA:165,0,11,0
DA:166,1
BRDA:166,0,0,1
BRDA:166,0,1,0
BRDA:166,0,2,1
BRDA:166,0,3,0
BRDA:166,0,4,0
BRDA:166,0,5,1
BRDA:166,0,6,0
BRDA:166,0,7,0
BRDA:166,0,8,0
BRDA:166,0,9,0
BRDA:166,0,10,0
BRDA:166,0,11,0
DA:167,1
BRDA:167,0,0,1
BRDA:167,0,1,0
BRDA:167,0,2,1
BRDA:167,0,3,0
BRDA:167,0,4,0
BRDA:167,0,5,1
BRDA:167,0,6,0
BRDA:167,0,7,0
BRDA:167,0,8,0
BRDA:167,0,9,0
BRDA:167,0,10,0
BRDA:167,0,11,0
DA:168,1
end_of_record
SF:/usr/include/c++/9/bits/stl_function.h
FN:385,_ZNKSt4lessINSt7__cxx1112basic_stringIcSt11char_traitsIcESaIcEEEEclERKS5_S8_
FNDA:55,_ZNKSt4lessINSt7__cxx1112basic_stringIcSt11char_traitsIcESaIcEEEEclERKS5_S8_
FN:1155,_ZNKSt10_Select1stISt4pairIKNSt7__cxx1112basic_stringIcSt11char_traitsIcESaIcEEEN7testing8internal12CodeLocationEEEclERKSB_
FNDA:37,_ZNKSt10_Select1stISt4pairIKNSt7__cxx1112basic_stringIcSt11char_traitsIcESaIcEEEN7testing8internal12CodeLocationEEEclERKSB_
DA:385,55
DA:386,55
DA:1155,37
DA:1156,37
end_of_record
SF:/usr/include/c++/9/ext/aligned_buffer.h
FN:64,_ZN9__gnu_cxx16__aligned_membufISt4pairIKNSt7__cxx1112basic_stringIcSt11char_traitsIcESaIcEEEN7testing8internal12CodeLocationEEE7_M_addrEv
FNDA:6,_ZN9__gnu_cxx16__aligned_membufISt4pairIKNSt7__cxx1112basic_stringIcSt11char_traitsIcESaIcEEEN7testing8internal12CodeLocationEEE7_M_addrEv
FN:68,_ZNK9__gnu_cxx16__aligned_membufISt4pairIKNSt7__cxx1112basic_stringIcSt11char_traitsIcESaIcEEEN7testing8internal12CodeLocationEEE7_M_addrEv
FNDA:43,_ZNK9__gnu_cxx16__aligned_membufISt4pairIKNSt7__cxx1112basic_stringIcSt11char_traitsIcESaIcEEEN7testing8internal12CodeLocationEEE7_M_addrEv
FN:72,_ZN9__gnu_cxx16__aligned_membufISt4pairIKNSt7__cxx1112basic_stringIcSt11char_traitsIcESaIcEEEN7testing8internal12CodeLocationEEE6_M_ptrEv
FNDA:6,_ZN9__gnu_cxx16__aligned_membufISt4pairIKNSt7__cxx1112basic_stringIcSt11char_traitsIcESaIcEEEN7testing8internal12CodeLocationEEE6_M_ptrEv
FN:76,_ZNK9__gnu_cxx16__aligned_membufISt4pairIKNSt7__cxx1112basic_stringIcSt11char_traitsIcESaIcEEEN7testing8internal12CodeLocationEEE6_M_ptrEv
FNDA:43,_ZNK9__gnu_cxx16__aligned_membufISt4pairIKNSt7__cxx1112basic_stringIcSt11char_traitsIcESaIcEEEN7testing8internal12CodeLocationEEE6_M_ptrEv
DA:64,6
DA:65,6
DA:68,43
DA:69,43
DA:72,6
DA:73,6
DA:76,43
DA:77,43
end_of_record
SF:/usr/include/c++/9/bits/unique_ptr.h
FN:75,_ZNKSt14default_deleteINSt7__cxx1112basic_stringIcSt11char_traitsIcESaIcEEEEclEPS5_
FNDA:0,_ZNKSt14default_deleteINSt7__cxx1112basic_stringIcSt11char_traitsIcESaIcEEEEclEPS5_
FN:75,_ZNKSt14default_deleteINSt7__cxx1118basic_stringstreamIcSt11char_traitsIcESaIcEEEEclEPS5_
FNDA:80,_ZNKSt14default_deleteINSt7__cxx1118basic_stringstreamIcSt11char_traitsIcESaIcEEEEclEPS5_
FN:146,_ZNSt15__uniq_ptr_implINSt7__cxx1112basic_stringIcSt11char_traitsIcESaIcEEESt14default_deleteIS5_EEC2Ev
FNDA:72,_ZNSt15__uniq_ptr_implINSt7__cxx1112basic_stringIcSt11char_traitsIcESaIcEEESt14default_deleteIS5_EEC2Ev
FN:153,_ZNSt15__uniq_ptr_implINSt7__cxx1112basic_stringIcSt11char_traitsIcESaIcEEESt14default_deleteIS5_EE6_M_ptrEv
FNDA:72,_ZNSt15__uniq_ptr_implINSt7__cxx1112basic_stringIcSt11char_traitsIcESaIcEEESt14default_deleteIS5_EE6_M_ptrEv
FN:153,_ZNSt15__uniq_ptr_implINSt7__cxx1118basic_stringstreamIcSt11char_traitsIcESaIcEEESt14default_deleteIS5_EE6_M_ptrEv
FNDA:160,_ZNSt15__uniq_ptr_implINSt7__cxx1118basic_stringstreamIcSt11char_traitsIcESaIcEEESt14default_deleteIS5_EE6_M_ptrEv
FN:154,_ZNKSt15__uniq_ptr_implINSt7__cxx1118basic_stringstreamIcSt11char_traitsIcESaIcEEESt14default_deleteIS5_EE6_M_ptrEv
FNDA:611,_ZNKSt15__uniq_ptr_implINSt7__cxx1118basic_stringstreamIcSt11char_traitsIcESaIcEEESt14default_deleteIS5_EE6_M_ptrEv
FN:154,_ZNKSt15__uniq_ptr_implINSt7__cxx1112basic_stringIcSt11char_traitsIcESaIcEEESt14default_deleteIS5_EE6_M_ptrEv
FNDA:0,_ZNKSt15__uniq_ptr_implINSt7__cxx1112basic_stringIcSt11char_traitsIcESaIcEEESt14default_deleteIS5_EE6_M_ptrEv
FN:155,_ZNSt15__uniq_ptr_implINSt7__cxx1112basic_stringIcSt11char_traitsIcESaIcEEESt14default_deleteIS5_EE10_M_deleterEv
FNDA:0,_ZNSt15__uniq_ptr_implINSt7__cxx1112basic_stringIcSt11char_traitsIcESaIcEEESt14default_deleteIS5_EE10_M_deleterEv
FN:155,_ZNSt15__uniq_ptr_implINSt7__cxx1118basic_stringstreamIcSt11char_traitsIcESaIcEEESt14default_deleteIS5_EE10_M_deleterEv
FNDA:80,_ZNSt15__uniq_ptr_implINSt7__cxx1118basic_stringstreamIcSt11char_traitsIcESaIcEEESt14default_deleteIS5_EE10_M_deleterEv
FN:199,_ZNSt10unique_ptrINSt7__cxx1112basic_stringIcSt11char_traitsIcESaIcEEESt14default_deleteIS5_EEC2IS7_vEEv
FNDA:72,_ZNSt10unique_ptrINSt7__cxx1112basic_stringIcSt11char_traitsIcESaIcEEESt14default_deleteIS5_EEC2IS7_vEEv
FN:286,_ZNSt10unique_ptrINSt7__cxx1118basic_stringstreamIcSt11char_traitsIcESaIcEEESt14default_deleteIS5_EED2Ev
FNDA:80,_ZNSt10unique_ptrINSt7__cxx1118basic_stringstreamIcSt11char_traitsIcESaIcEEESt14default_deleteIS5_EED2Ev
FN:286,_ZNSt10unique_ptrINSt7__cxx1112basic_stringIcSt11char_traitsIcESaIcEEESt14default_deleteIS5_EED2Ev
FNDA:72,_ZNSt10unique_ptrINSt7__cxx1112basic_stringIcSt11char_traitsIcESaIcEEESt14default_deleteIS5_EED2Ev
FN:344,_ZNKSt10unique_ptrINSt7__cxx1118basic_stringstreamIcSt11char_traitsIcESaIcEEESt14default_deleteIS5_EEdeEv
FNDA:531,_ZNKSt10unique_ptrINSt7__cxx1118basic_stringstreamIcSt11char_traitsIcESaIcEEESt14default_deleteIS5_EEdeEv
FN:352,_ZNKSt10unique_ptrINSt7__cxx1112basic_stringIcSt11char_traitsIcESaIcEEESt14default_deleteIS5_EEptEv
FNDA:0,_ZNKSt10unique_ptrINSt7__cxx1112basic_stringIcSt11char_traitsIcESaIcEEESt14default_deleteIS5_EEptEv
FN:360,_ZNKSt10unique_ptrINSt7__cxx1118basic_stringstreamIcSt11char_traitsIcESaIcEEESt14default_deleteIS5_EE3getEv
FNDA:611,_ZNKSt10unique_ptrINSt7__cxx1118basic_stringstreamIcSt11char_traitsIcESaIcEEESt14default_deleteIS5_EE3getEv
FN:360,_ZNKSt10unique_ptrINSt7__cxx1112basic_stringIcSt11char_traitsIcESaIcEEESt14default_deleteIS5_EE3getEv
FNDA:0,_ZNKSt10unique_ptrINSt7__cxx1112basic_stringIcSt11char_traitsIcESaIcEEESt14default_deleteIS5_EE3getEv
FN:365,_ZNSt10unique_ptrINSt7__cxx1118basic_stringstreamIcSt11char_traitsIcESaIcEEESt14default_deleteIS5_EE11get_deleterEv
FNDA:80,_ZNSt10unique_ptrINSt7__cxx1118basic_stringstreamIcSt11char_traitsIcESaIcEEESt14default_deleteIS5_EE11get_deleterEv
FN:365,_ZNSt10unique_ptrINSt7__cxx1112basic_stringIcSt11char_traitsIcESaIcEEESt14default_deleteIS5_EE11get_deleterEv
FNDA:0,_ZNSt10unique_ptrINSt7__cxx1112basic_stringIcSt11char_traitsIcESaIcEEESt14default_deleteIS5_EE11get_deleterEv
DA:75,0
DA:81,0
BRDA:81,0,0,-
BRDA:81,0,1,-
DA:82,0
DA:75,80
DA:81,80
BRDA:81,0,0,80
BRDA:81,0,1,0
DA:82,80
DA:146,72
DA:153,72
DA:153,160
DA:154,611
DA:154,0
DA:155,0
DA:155,80
DA:199,72
DA:200,72
DA:201,72
DA:286,72
DA:290,72
DA:291,72
BRDA:291,0,0,0
BRDA:291,0,1,72
DA:292,0
DA:293,72
DA:294,72
DA:286,80
DA:290,80
DA:291,80
BRDA:291,0,0,80
BRDA:291,0,1,0
DA:292,80
DA:293,80
DA:294,80
DA:344,531
DA:347,531
DA:352,0
DA:355,0
DA:360,611
DA:361,611
DA:360,0
DA:361,0
DA:365,0
DA:366,0
DA:365,80
DA:366,80
end_of_record
SF:/usr/local/include/gtest/gtest-printers.h
FN:227,_ZN7testing8internal13StreamPrinter10PrintValueIivEEvRKT_PSo
FNDA:0,_ZN7testing8internal13StreamPrinter10PrintValueIivEEvRKT_PSo
FN:307,_ZN7testing8internal17PrintWithFallbackIiEEvRKT_PSo
FNDA:0,_ZN7testing8internal17PrintWithFallbackIiEEvRKT_PSo
FN:333,_ZN7testing8internal19FormatForComparisonIiiE6FormatB5cxx11ERKi
FNDA:0,_ZN7testing8internal19FormatForComparisonIiiE6FormatB5cxx11ERKi
FN:413,_ZN7testing8internal33FormatForComparisonFailureMessageIiiEENSt7__cxx1112basic_stringIcSt11char_traitsIcESaIcEEERKT_RKT0_
FNDA:0,_ZN7testing8internal33FormatForComparisonFailureMessageIiiEENSt7__cxx1112basic_stringIcSt11char_traitsIcESaIcEEERKT_RKT0_
FN:440,_ZN7testing8internal7PrintToIiEEvRKT_PSo
FNDA:0,_ZN7testing8internal7PrintToIiEEvRKT_PSo
FN:628,_ZN7testing8internal16UniversalPrinterIiE5PrintERKiPSo
FNDA:0,_ZN7testing8internal16UniversalPrinterIiE5PrintERKiPSo
FN:792,_ZN7testing8internal21UniversalTersePrinterIiE5PrintERKiPSo
FNDA:0,_ZN7testing8internal21UniversalTersePrinterIiE5PrintERKiPSo
FN:861,_ZN7testing8internal14UniversalPrintIiEEvRKT_PSo
FNDA:0,_ZN7testing8internal14UniversalPrintIiEEvRKT_PSo
FN:901,_ZN7testing13PrintToStringIiEENSt7__cxx1112basic_stringIcSt11char_traitsIcESaIcEEERKT_
FNDA:0,_ZN7testing13PrintToStringIiEENSt7__cxx1112basic_stringIcSt11char_traitsIcESaIcEEERKT_
DA:227,0
DA:228,0
DA:229,0
DA:307,0
DA:312,0
DA:313,0
DA:333,0
DA:334,0
DA:413,0
DA:415,0
DA:440,0
DA:441,0
DA:442,0
DA:628,0
DA:637,0
DA:638,0
DA:792,0
DA:793,0
DA:794,0
DA:861,0
DA:865,0
DA:866,0
DA:901,0
DA:902,0
BRDA:902,0,0,-
BRDA:902,0,1,-
DA:903,0
BRDA:903,0,0,-
BRDA:903,0,1,-
DA:904,0
BRDA:904,0,0,-
BRDA:904,0,1,-
end_of_record
SF:/usr/include/c++/9/bits/stl_algobase.h
FN:198,_ZSt3minImERKT_S2_S2_
FNDA:86,_ZSt3minImERKT_S2_S2_
FN:222,_ZSt3maxImERKT_S2_S2_
FNDA:43,_ZSt3maxImERKT_S2_S2_
FN:280,_ZSt12__niter_baseIPNSt7__cxx1112basic_stringIcSt11char_traitsIcESaIcEEEET_S7_
FNDA:72,_ZSt12__niter_baseIPNSt7__cxx1112basic_stringIcSt11char_traitsIcESaIcEEEET_S7_
FN:280,_ZSt12__niter_baseIPbET_S1_
FNDA:12,_ZSt12__niter_baseIPbET_S1_
FN:709,_ZSt8__fill_aIPbbEN9__gnu_cxx11__enable_ifIXsrSt11__is_scalarIT0_E7__valueEvE6__typeET_S8_RKS4_
FNDA:6,_ZSt8__fill_aIPbbEN9__gnu_cxx11__enable_ifIXsrSt11__is_scalarIT0_E7__valueEvE6__typeET_S8_RKS4_
FN:742,_ZSt4fillIPbbEvT_S1_RKT0_
FNDA:6,_ZSt4fillIPbbEvT_S1_RKT0_
DA:198,86
DA:203,86
BRDA:203,0,0,0
BRDA:203,0,1,86
DA:204,0
DA:205,86
DA:222,43
DA:227,43
BRDA:227,0,0,17
BRDA:227,0,1,26
DA:228,17
DA:229,26
DA:280,72
DA:282,72
DA:280,12
DA:282,12
DA:709,6
DA:712,6
DA:713,60012
BRDA:713,0,0,60006
BRDA:713,0,1,6
DA:714,60006
DA:715,6
DA:742,6
DA:749,6
DA:751,6
end_of_record
SF:/usr/include/c++/9/bits/stl_pair.h
FN:311,_ZNSt4pairIPSt18_Rb_tree_node_baseS1_EC2IRS1_Lb1EEEOT_RKS1_
FNDA:0,_ZNSt4pairIPSt18_Rb_tree_node_baseS1_EC2IRS1_Lb1EEEOT_RKS1_
FN:341,_ZNSt4pairIPSt18_Rb_tree_node_baseS1_EC2IRPSt13_Rb_tree_nodeIS_IKNSt7__cxx1112basic_stringIcSt11char_traitsIcESaIcEEEN7testing8internal12CodeLocationEEERS1_Lb1EEEOT_OT0_
FNDA:3,_ZNSt4pairIPSt18_Rb_tree_node_baseS1_EC2IRPSt13_Rb_tree_nodeIS_IKNSt7__cxx1112basic_stringIcSt11char_traitsIcESaIcEEEN7testing8internal12CodeLocationEEERS1_Lb1EEEOT_OT0_
FN:341,_ZNSt4pairISt17_Rb_tree_iteratorIS_IKNSt7__cxx1112basic_stringIcSt11char_traitsIcESaIcEEEN7testing8internal12CodeLocationEEEbEC2ISC_bLb1EEEOT_OT0_
FNDA:3,_ZNSt4pairISt17_Rb_tree_iteratorIS_IKNSt7__cxx1112basic_stringIcSt11char_traitsIcESaIcEEEN7testing8internal12CodeLocationEEEbEC2ISC_bLb1EEEOT_OT0_
FN:341,_ZNSt4pairIPKcN7testing8internal12CodeLocationEEC2IRS1_S4_Lb1EEEOT_OT0_
FNDA:3,_ZNSt4pairIPKcN7testing8internal12CodeLocationEEC2IRS1_S4_Lb1EEEOT_OT0_
FN:360,_ZNSt4pairIKNSt7__cxx1112basic_stringIcSt11char_traitsIcESaIcEEEN7testing8internal12CodeLocationEEC2IPKcS9_Lb1EEEOS_IT_T0_E
FNDA:3,_ZNSt4pairIKNSt7__cxx1112basic_stringIcSt11char_traitsIcESaIcEEEN7testing8internal12CodeLocationEEC2IPKcS9_Lb1EEEOS_IT_T0_E
FN:524,_ZSt9make_pairIRPKcN7testing8internal12CodeLocationEESt4pairINSt17__decay_and_stripIT_E6__typeENS7_IT0_E6__typeEEOS8_OSB_
FNDA:3,_ZSt9make_pairIRPKcN7testing8internal12CodeLocationEESt4pairINSt17__decay_and_stripIT_E6__typeENS7_IT0_E6__typeEEOS8_OSB_
DA:311,0
DA:312,0
DA:341,3
DA:342,3
DA:341,3
DA:342,3
DA:341,3
DA:342,3
DA:360,3
DA:361,3
DA:362,6
BRDA:362,0,0,3
BRDA:362,0,1,0
DA:524,3
DA:529,3
end_of_record
SF:/usr/local/include/gtest/internal/gtest-port.h
FN:970,_ZN7testing8internal8GTestLog9GetStreamEv
FNDA:0,_ZN7testing8internal8GTestLog9GetStreamEv
FN:1930,_ZN7testing8internal7IsSpaceEc
FNDA:27,_ZN7testing8internal7IsSpaceEc
FN:1951,_ZN7testing8internal19StripTrailingSpacesENSt7__cxx1112basic_stringIcSt11char_traitsIcESaIcEEE
FNDA:18,_ZN7testing8internal19StripTrailingSpacesENSt7__cxx1112basic_stringIcSt11char_traitsIcESaIcEEE
FN:2109,_ZN7testing8internal5posix5AbortEv
FNDA:0,_ZN7testing8internal5posix5AbortEv
DA:970,0
DA:1930,27
DA:1931,27
DA:1951,18
DA:1952,18
DA:1953,18
BRDA:1953,0,0,18
BRDA:1953,0,1,0
BRDA:1953,0,2,0
BRDA:1953,0,3,18
BRDA:1953,0,4,0
BRDA:1953,0,5,18
DA:1954,0
BRDA:1954,0,0,-
BRDA:1954,0,1,-
DA:1955,36
DA:2109,0
end_of_record
SF:/usr/local/include/gtest/gtest.h
FN:305,_ZN7testing15AssertionResultC2IbEERKT_PNSt9enable_ifIXntsrSt14is_convertibleIS2_S0_E5valueEvE4typeE
FNDA:72,_ZN7testing15AssertionResultC2IbEERKT_PNSt9enable_ifIXntsrSt14is_convertibleIS2_S0_E5valueEvE4typeE
FN:324,_ZNK7testing15AssertionResultcvbEv
FNDA:72,_ZNK7testing15AssertionResultcvbEv
FN:333,_ZNK7testing15AssertionResult7messageEv
FNDA:0,_ZNK7testing15AssertionResult7messageEv
FN:337,_ZNK7testing15AssertionResult15failure_messageEv
FNDA:0,_ZNK7testing15AssertionResult15failure_messageEv
FN:427,_ZN7testing4Test14SetUpTestSuiteEv
FNDA:0,_ZN7testing4Test14SetUpTestSuiteEv
FN:435,_ZN7testing4Test17TearDownTestSuiteEv
FNDA:0,_ZN7testing4Test17TearDownTestSuiteEv
FN:439,_ZN7testing4Test16TearDownTestCaseEv
FNDA:0,_ZN7testing4Test16TearDownTestCaseEv
FN:440,_ZN7testing4Test13SetUpTestCaseEv
FNDA:0,_ZN7testing4Test13SetUpTestCaseEv
FN:521,_ZN7testing4Test5SetupEv
FNDA:0,_ZN7testing4Test5SetupEv
FN:1521,_ZN7testing8internal18CmpHelperEQFailureIiiEENS_15AssertionResultEPKcS4_RKT_RKT0_
FNDA:0,_ZN7testing8internal18CmpHelperEQFailureIiiEENS_15AssertionResultEPKcS4_RKT_RKT0_
FN:1540,_ZN7testing8internal11CmpHelperEQIiiEENS_15AssertionResultEPKcS4_RKT_RKT0_
FNDA:24,_ZN7testing8internal11CmpHelperEQIiiEENS_15AssertionResultEPKcS4_RKT_RKT0_
FN:1568,_ZN7testing8internal8EqHelper7CompareIiiLPv0EEENS_15AssertionResultEPKcS6_RKT_RKT0_
FNDA:24,_ZN7testing8internal8EqHelper7CompareIiiLPv0EEENS_15AssertionResultEPKcS6_RKT_RKT0_
DA:305,72
DA:311,72
DA:324,72
DA:333,0
DA:334,0
BRDA:334,0,0,-
BRDA:334,0,1,-
DA:337,0
DA:427,0
DA:435,0
DA:439,0
DA:440,0
DA:521,0
DA:1521,0
DA:1528,0
BRDA:1528,0,0,-
BRDA:1528,0,1,-
BRDA:1528,0,2,-
BRDA:1528,0,3,-
DA:1540,24
DA:1544,24
BRDA:1544,0,0,24
BRDA:1544,0,1,0
DA:1545,24
DA:1548,0
DA:1568,24
DA:1571,24
end_of_record
SF:/usr/include/c++/9/bits/stl_uninitialized.h
FN:76,_ZNSt20__uninitialized_copyILb0EE13__uninit_copyISt13move_iteratorIPNSt7__cxx1112basic_stringIcSt11char_traitsIcESaIcEEEES9_EET0_T_SC_SB_
FNDA:0,_ZNSt20__uninitialized_copyILb0EE13__uninit_copyISt13move_iteratorIPNSt7__cxx1112basic_stringIcSt11char_traitsIcESaIcEEEES9_EET0_T_SC_SB_
FN:115,_ZSt18uninitialized_copyISt13move_iteratorIPNSt7__cxx1112basic_stringIcSt11char_traitsIcESaIcEEEES7_ET0_T_SA_S9_
FNDA:0,_ZSt18uninitialized_copyISt13move_iteratorIPNSt7__cxx1112basic_stringIcSt11char_traitsIcESaIcEEEES7_ET0_T_SA_S9_
FN:305,_ZSt22__uninitialized_copy_aISt13move_iteratorIPNSt7__cxx1112basic_stringIcSt11char_traitsIcESaIcEEEES7_S6_ET0_T_SA_S9_RSaIT1_E
FNDA:0,_ZSt22__uninitialized_copy_aISt13move_iteratorIPNSt7__cxx1112basic_stringIcSt11char_traitsIcESaIcEEEES7_S6_ET0_T_SA_S9_RSaIT1_E
FN:323,_ZSt34__uninitialized_move_if_noexcept_aIPNSt7__cxx1112basic_stringIcSt11char_traitsIcESaIcEEES6_SaIS5_EET0_T_S9_S8_RT1_
FNDA:0,_ZSt34__uninitialized_move_if_noexcept_aIPNSt7__cxx1112basic_stringIcSt11char_traitsIcESaIcEEES6_SaIS5_EET0_T_S9_S8_RT1_
FN:905,_ZSt19__relocate_object_aINSt7__cxx1112basic_stringIcSt11char_traitsIcESaIcEEES5_SaIS5_EEvPT_PT0_RT1_
FNDA:7,_ZSt19__relocate_object_aINSt7__cxx1112basic_stringIcSt11char_traitsIcESaIcEEES5_SaIS5_EEvPT_PT0_RT1_
FN:936,_ZSt14__relocate_a_1IPNSt7__cxx1112basic_stringIcSt11char_traitsIcESaIcEEES6_SaIS5_EET0_T_S9_S8_RT1_
FNDA:24,_ZSt14__relocate_a_1IPNSt7__cxx1112basic_stringIcSt11char_traitsIcESaIcEEES6_SaIS5_EET0_T_S9_S8_RT1_
FN:958,_ZSt12__relocate_aIPNSt7__cxx1112basic_stringIcSt11char_traitsIcESaIcEEES6_SaIS5_EET0_T_S9_S8_RT1_
FNDA:24,_ZSt12__relocate_aIPNSt7__cxx1112basic_stringIcSt11char_traitsIcESaIcEEES6_SaIS5_EET0_T_S9_S8_RT1_
DA:76,0
DA:79,0
DA:82,0
BRDA:82,0,0,-
BRDA:82,0,1,-
BRDA:82,0,2,-
BRDA:82,0,3,-
DA:83,0
DA:84,0
DA:86,0
DA:88,0
BRDA:88,0,0,0
BRDA:88,0,1,0
DA:89,0
DA:115,0
DA:134,0
DA:140,0
DA:305,0
DA:307,0
DA:323,0
DA:329,0
DA:330,0
DA:905,7
DA:912,7
DA:913,7
DA:914,7
DA:936,24
DA:948,24
DA:949,31
BRDA:949,0,0,7
BRDA:949,0,1,24
DA:950,7
DA:952,24
DA:958,24
DA:964,24
DA:966,24
end_of_record
SF:/usr/include/c++/9/tuple
FN:76,_ZNSt10_Head_baseILm1ESt14default_deleteINSt7__cxx1112basic_stringIcSt11char_traitsIcESaIcEEEELb1EEC2Ev
FNDA:72,_ZNSt10_Head_baseILm1ESt14default_deleteINSt7__cxx1112basic_stringIcSt11char_traitsIcESaIcEEEELb1EEC2Ev
FN:113,_ZNSt10_Head_baseILm1ESt14default_deleteINSt7__cxx1112basic_stringIcSt11char_traitsIcESaIcEEEELb1EE7_M_headERS8_
FNDA:0,_ZNSt10_Head_baseILm1ESt14default_deleteINSt7__cxx1112basic_stringIcSt11char_traitsIcESaIcEEEELb1EE7_M_headERS8_
FN:113,_ZNSt10_Head_baseILm1ESt14default_deleteINSt7__cxx1118basic_stringstreamIcSt11char_traitsIcESaIcEEEELb1EE7_M_headERS8_
FNDA:80,_ZNSt10_Head_baseILm1ESt14default_deleteINSt7__cxx1118basic_stringstreamIcSt11char_traitsIcESaIcEEEELb1EE7_M_headERS8_
FN:122,_ZNSt10_Head_baseILm0EPNSt7__cxx1112basic_stringIcSt11char_traitsIcESaIcEEELb0EEC2Ev
FNDA:72,_ZNSt10_Head_baseILm0EPNSt7__cxx1112basic_stringIcSt11char_traitsIcESaIcEEELb0EEC2Ev
FN:160,_ZNSt10_Head_baseILm0EPNSt7__cxx1118basic_stringstreamIcSt11char_traitsIcESaIcEEELb0EE7_M_headERS7_
FNDA:160,_ZNSt10_Head_baseILm0EPNSt7__cxx1118basic_stringstreamIcSt11char_traitsIcESaIcEEELb0EE7_M_headERS7_
FN:160,_ZNSt10_Head_baseILm0EPNSt7__cxx1112basic_stringIcSt11char_traitsIcESaIcEEELb0EE7_M_headERS7_
FNDA:72,_ZNSt10_Head_baseILm0EPNSt7__cxx1112basic_stringIcSt11char_traitsIcESaIcEEELb0EE7_M_headERS7_
FN:163,_ZNSt10_Head_baseILm0EPNSt7__cxx1112basic_stringIcSt11char_traitsIcESaIcEEELb0EE7_M_headERKS7_
FNDA:0,_ZNSt10_Head_baseILm0EPNSt7__cxx1112basic_stringIcSt11char_traitsIcESaIcEEELb0EE7_M_headERKS7_
FN:163,_ZNSt10_Head_baseILm0EPNSt7__cxx1118basic_stringstreamIcSt11char_traitsIcESaIcEEELb0EE7_M_headERKS7_
FNDA:611,_ZNSt10_Head_baseILm0EPNSt7__cxx1118basic_stringstreamIcSt11char_traitsIcESaIcEEELb0EE7_M_headERKS7_
FN:195,_ZNSt11_Tuple_implILm0EJPNSt7__cxx1112basic_stringIcSt11char_traitsIcESaIcEEESt14default_deleteIS5_EEE7_M_headERS9_
FNDA:72,_ZNSt11_Tuple_implILm0EJPNSt7__cxx1112basic_stringIcSt11char_traitsIcESaIcEEESt14default_deleteIS5_EEE7_M_headERS9_
FN:195,_ZNSt11_Tuple_implILm0EJPNSt7__cxx1118basic_stringstreamIcSt11char_traitsIcESaIcEEESt14default_deleteIS5_EEE7_M_headERS9_
FNDA:160,_ZNSt11_Tuple_implILm0EJPNSt7__cxx1118basic_stringstreamIcSt11char_traitsIcESaIcEEESt14default_deleteIS5_EEE7_M_headERS9_
FN:198,_ZNSt11_Tuple_implILm0EJPNSt7__cxx1118basic_stringstreamIcSt11char_traitsIcESaIcEEESt14default_deleteIS5_EEE7_M_headERKS9_
FNDA:611,_ZNSt11_Tuple_implILm0EJPNSt7__cxx1118basic_stringstreamIcSt11char_traitsIcESaIcEEESt14default_deleteIS5_EEE7_M_headERKS9_
FN:198,_ZNSt11_Tuple_implILm0EJPNSt7__cxx1112basic_stringIcSt11char_traitsIcESaIcEEESt14default_deleteIS5_EEE7_M_headERKS9_
FNDA:0,_ZNSt11_Tuple_implILm0EJPNSt7__cxx1112basic_stringIcSt11char_traitsIcESaIcEEESt14default_deleteIS5_EEE7_M_headERKS9_
FN:206,_ZNSt11_Tuple_implILm0EJPNSt7__cxx1112basic_stringIcSt11char_traitsIcESaIcEEESt14default_deleteIS5_EEEC2Ev
FNDA:72,_ZNSt11_Tuple_implILm0EJPNSt7__cxx1112basic_stringIcSt11char_traitsIcESaIcEEESt14default_deleteIS5_EEEC2Ev
FN:334,_ZNSt11_Tuple_implILm1EJSt14default_deleteINSt7__cxx1112basic_stringIcSt11char_traitsIcESaIcEEEEEE7_M_headERS8_
FNDA:0,_ZNSt11_Tuple_implILm1EJSt14default_deleteINSt7__cxx1112basic_stringIcSt11char_traitsIcESaIcEEEEEE7_M_headERS8_
FN:334,_ZNSt11_Tuple_implILm1EJSt14default_deleteINSt7__cxx1118basic_stringstreamIcSt11char_traitsIcESaIcEEEEEE7_M_headERS8_
FNDA:80,_ZNSt11_Tuple_implILm1EJSt14default_deleteINSt7__cxx1118basic_stringstreamIcSt11char_traitsIcESaIcEEEEEE7_M_headERS8_
FN:339,_ZNSt11_Tuple_implILm1EJSt14default_deleteINSt7__cxx1112basic_stringIcSt11char_traitsIcESaIcEEEEEEC2Ev
FNDA:72,_ZNSt11_Tuple_implILm1EJSt14default_deleteINSt7__cxx1112basic_stringIcSt11char_traitsIcESaIcEEEEEEC2Ev
FN:918,_ZNSt5tupleIJPNSt7__cxx1112basic_stringIcSt11char_traitsIcESaIcEEESt14default_deleteIS5_EEEC2IS6_S8_Lb1EEEv
FNDA:72,_ZNSt5tupleIJPNSt7__cxx1112basic_stringIcSt11char_traitsIcESaIcEEESt14default_deleteIS5_EEEC2IS6_S8_Lb1EEEv
FN:1309,_ZSt12__get_helperILm1ESt14default_deleteINSt7__cxx1112basic_stringIcSt11char_traitsIcESaIcEEEEJEERT0_RSt11_Tuple_implIXT_EJS8_DpT1_EE
FNDA:0,_ZSt12__get_helperILm1ESt14default_deleteINSt7__cxx1112basic_stringIcSt11char_traitsIcESaIcEEEEJEERT0_RSt11_Tuple_implIXT_EJS8_DpT1_EE
FN:1309,_ZSt12__get_helperILm0EPNSt7__cxx1118basic_stringstreamIcSt11char_traitsIcESaIcEEEJSt14default_deleteIS5_EEERT0_RSt11_Tuple_implIXT_EJS9_DpT1_EE
FNDA:160,_ZSt12__get_helperILm0EPNSt7__cxx1118basic_stringstreamIcSt11char_traitsIcESaIcEEEJSt14default_deleteIS5_EEERT0_RSt11_Tuple_implIXT_EJS9_DpT1_EE
FN:1309,_ZSt12__get_helperILm0EPNSt7__cxx1112basic_stringIcSt11char_traitsIcESaIcEEEJSt14default_deleteIS5_EEERT0_RSt11_Tuple_implIXT_EJS9_DpT1_EE
FNDA:72,_ZSt12__get_helperILm0EPNSt7__cxx1112basic_stringIcSt11char_traitsIcESaIcEEEJSt14default_deleteIS5_EEERT0_RSt11_Tuple_implIXT_EJS9_DpT1_EE
FN:1309,_ZSt12__get_helperILm1ESt14default_deleteINSt7__cxx1118basic_stringstreamIcSt11char_traitsIcESaIcEEEEJEERT0_RSt11_Tuple_implIXT_EJS8_DpT1_EE
FNDA:80,_ZSt12__get_helperILm1ESt14default_deleteINSt7__cxx1118basic_stringstreamIcSt11char_traitsIcESaIcEEEEJEERT0_RSt11_Tuple_implIXT_EJS8_DpT1_EE
FN:1314,_ZSt12__get_helperILm0EPNSt7__cxx1112basic_stringIcSt11char_traitsIcESaIcEEEJSt14default_deleteIS5_EEERKT0_RKSt11_Tuple_implIXT_EJS9_DpT1_EE
FNDA:0,_ZSt12__get_helperILm0EPNSt7__cxx1112basic_stringIcSt11char_traitsIcESaIcEEEJSt14default_deleteIS5_EEERKT0_RKSt11_Tuple_implIXT_EJS9_DpT1_EE
FN:1314,_ZSt12__get_helperILm0EPNSt7__cxx1118basic_stringstreamIcSt11char_traitsIcESaIcEEEJSt14default_deleteIS5_EEERKT0_RKSt11_Tuple_implIXT_EJS9_DpT1_EE
FNDA:611,_ZSt12__get_helperILm0EPNSt7__cxx1118basic_stringstreamIcSt11char_traitsIcESaIcEEEJSt14default_deleteIS5_EEERKT0_RKSt11_Tuple_implIXT_EJS9_DpT1_EE
FN:1320,_ZSt3getILm1EJPNSt7__cxx1112basic_stringIcSt11char_traitsIcESaIcEEESt14default_deleteIS5_EEERNSt13tuple_elementIXT_ESt5tupleIJDpT0_EEE4typeERSD_
FNDA:0,_ZSt3getILm1EJPNSt7__cxx1112basic_stringIcSt11char_traitsIcESaIcEEESt14default_deleteIS5_EEERNSt13tuple_elementIXT_ESt5tupleIJDpT0_EEE4typeERSD_
FN:1320,_ZSt3getILm1EJPNSt7__cxx1118basic_stringstreamIcSt11char_traitsIcESaIcEEESt14default_deleteIS5_EEERNSt13tuple_elementIXT_ESt5tupleIJDpT0_EEE4typeERSD_
FNDA:80,_ZSt3getILm1EJPNSt7__cxx1118basic_stringstreamIcSt11char_traitsIcESaIcEEESt14default_deleteIS5_EEERNSt13tuple_elementIXT_ESt5tupleIJDpT0_EEE4typeERSD_
FN:1320,_ZSt3getILm0EJPNSt7__cxx1112basic_stringIcSt11char_traitsIcESaIcEEESt14default_deleteIS5_EEERNSt13tuple_elementIXT_ESt5tupleIJDpT0_EEE4typeERSD_
FNDA:72,_ZSt3getILm0EJPNSt7__cxx1112basic_stringIcSt11char_traitsIcESaIcEEESt14default_deleteIS5_EEERNSt13tuple_elementIXT_ESt5tupleIJDpT0_EEE4typeERSD_
FN:1320,_ZSt3getILm0EJPNSt7__cxx1118basic_stringstreamIcSt11char_traitsIcESaIcEEESt14default_deleteIS5_EEERNSt13tuple_elementIXT_ESt5tupleIJDpT0_EEE4typeERSD_
FNDA:160,_ZSt3getILm0EJPNSt7__cxx1118basic_stringstreamIcSt11char_traitsIcESaIcEEESt14default_deleteIS5_EEERNSt13tuple_elementIXT_ESt5tupleIJDpT0_EEE4typeERSD_
FN:1326,_ZSt3getILm0EJPNSt7__cxx1118basic_stringstreamIcSt11char_traitsIcESaIcEEESt14default_deleteIS5_EEERKNSt13tuple_elementIXT_ESt5tupleIJDpT0_EEE4typeERKSD_
FNDA:611,_ZSt3getILm0EJPNSt7__cxx1118basic_stringstreamIcSt11char_traitsIcESaIcEEESt14default_deleteIS5_EEERKNSt13tuple_elementIXT_ESt5tupleIJDpT0_EEE4typeERKSD_
FN:1326,_ZSt3getILm0EJPNSt7__cxx1112basic_stringIcSt11char_traitsIcESaIcEEESt14default_deleteIS5_EEERKNSt13tuple_elementIXT_ESt5tupleIJDpT0_EEE4typeERKSD_
FNDA:0,_ZSt3getILm0EJPNSt7__cxx1112basic_stringIcSt11char_traitsIcESaIcEEESt14default_deleteIS5_EEERKNSt13tuple_elementIXT_ESt5tupleIJDpT0_EEE4typeERKSD_
DA:76,72
DA:77,72
DA:113,0
DA:113,80
DA:122,72
DA:123,72
DA:160,72
DA:160,160
DA:163,611
DA:163,0
DA:195,72
DA:195,160
DA:198,611
DA:198,0
DA:206,72
DA:207,72
DA:334,0
DA:334,80
DA:339,72
DA:340,72
DA:918,72
DA:919,72
DA:1309,0
DA:1310,0
DA:1309,80
DA:1310,80
DA:1309,72
DA:1310,72
DA:1309,160
DA:1310,160
DA:1314,611
DA:1315,611
DA:1314,0
DA:1315,0
DA:1320,0
DA:1321,0
DA:1320,80
DA:1321,80
DA:1320,72
DA:1321,72
DA:1320,160
DA:1321,160
DA:1326,611
DA:1327,611
DA:1326,0
DA:1327,0
end_of_record
SF:/usr/include/c++/9/bits/stl_iterator_base_funcs.h
FN:98,_ZSt10__distanceIPcENSt15iterator_traitsIT_E15difference_typeES2_S2_St26random_access_iterator_tag
FNDA:0,_ZSt10__distanceIPcENSt15iterator_traitsIT_E15difference_typeES2_S2_St26random_access_iterator_tag
FN:98,_ZSt10__distanceIPKcENSt15iterator_traitsIT_E15difference_typeES3_S3_St26random_access_iterator_tag
FNDA:145,_ZSt10__distanceIPKcENSt15iterator_traitsIT_E15difference_typeES3_S3_St26random_access_iterator_tag
FN:138,_ZSt8distanceIPcENSt15iterator_traitsIT_E15difference_typeES2_S2_
FNDA:0,_ZSt8distanceIPcENSt15iterator_traitsIT_E15difference_typeES2_S2_
FN:138,_ZSt8distanceIPKcENSt15iterator_traitsIT_E15difference_typeES3_S3_
FNDA:145,_ZSt8distanceIPKcENSt15iterator_traitsIT_E15difference_typeES3_S3_
DA:98,0
DA:104,0
DA:98,145
DA:104,145
DA:138,0
DA:141,0
DA:142,0
DA:138,145
DA:141,145
DA:142,290
end_of_record
SF:/usr/include/c++/9/ext/new_allocator.h
FN:80,_ZN9__gnu_cxx13new_allocatorIcEC2Ev
FNDA:0,_ZN9__gnu_cxx13new_allocatorIcEC2Ev
FN:80,_ZN9__gnu_cxx13new_allocatorISt13_Rb_tree_nodeISt4pairIKNSt7__cxx1112basic_stringIcSt11char_traitsIcESaIcEEEN7testing8internal12CodeLocationEEEEC2Ev
FNDA:1,_ZN9__gnu_cxx13new_allocatorISt13_Rb_tree_nodeISt4pairIKNSt7__cxx1112basic_stringIcSt11char_traitsIcESaIcEEEN7testing8internal12CodeLocationEEEEC2Ev
FN:80,_ZN9__gnu_cxx13new_allocatorINSt7__cxx1112basic_stringIcSt11char_traitsIcESaIcEEEEC2Ev
FNDA:6,_ZN9__gnu_cxx13new_allocatorINSt7__cxx1112basic_stringIcSt11char_traitsIcESaIcEEEEC2Ev
FN:83,_ZN9__gnu_cxx13new_allocatorIcEC2ERKS1_
FNDA:0,_ZN9__gnu_cxx13new_allocatorIcEC2ERKS1_
FN:89,_ZN9__gnu_cxx13new_allocatorIcED2Ev
FNDA:0,_ZN9__gnu_cxx13new_allocatorIcED2Ev
FN:89,_ZN9__gnu_cxx13new_allocatorISt13_Rb_tree_nodeISt4pairIKNSt7__cxx1112basic_stringIcSt11char_traitsIcESaIcEEEN7testing8internal12CodeLocationEEEED2Ev
FNDA:1,_ZN9__gnu_cxx13new_allocatorISt13_Rb_tree_nodeISt4pairIKNSt7__cxx1112basic_stringIcSt11char_traitsIcESaIcEEEN7testing8internal12CodeLocationEEEED2Ev
FN:89,_ZN9__gnu_cxx13new_allocatorINSt7__cxx1112basic_stringIcSt11char_traitsIcESaIcEEEED2Ev
FNDA:10,_ZN9__gnu_cxx13new_allocatorINSt7__cxx1112basic_stringIcSt11char_traitsIcESaIcEEEED2Ev
FN:102,_ZN9__gnu_cxx13new_allocatorINSt7__cxx1112basic_stringIcSt11char_traitsIcESaIcEEEE8allocateEmPKv
FNDA:13,_ZN9__gnu_cxx13new_allocatorINSt7__cxx1112basic_stringIcSt11char_traitsIcESaIcEEEE8allocateEmPKv
FN:102,_ZN9__gnu_cxx13new_allocatorISt13_Rb_tree_nodeISt4pairIKNSt7__cxx1112basic_stringIcSt11char_traitsIcESaIcEEEN7testing8internal12CodeLocationEEEE8allocateEmPKv
FNDA:3,_ZN9__gnu_cxx13new_allocatorISt13_Rb_tree_nodeISt4pairIKNSt7__cxx1112basic_stringIcSt11char_traitsIcESaIcEEEN7testing8internal12CodeLocationEEEE8allocateEmPKv
FN:119,_ZN9__gnu_cxx13new_allocatorINSt7__cxx1112basic_stringIcSt11char_traitsIcESaIcEEEE10deallocateEPS6_m
FNDA:13,_ZN9__gnu_cxx13new_allocatorINSt7__cxx1112basic_stringIcSt11char_traitsIcESaIcEEEE10deallocateEPS6_m
FN:119,_ZN9__gnu_cxx13new_allocatorISt13_Rb_tree_nodeISt4pairIKNSt7__cxx1112basic_stringIcSt11char_traitsIcESaIcEEEN7testing8internal12CodeLocationEEEE10deallocateEPSE_m
FNDA:3,_ZN9__gnu_cxx13new_allocatorISt13_Rb_tree_nodeISt4pairIKNSt7__cxx1112basic_stringIcSt11char_traitsIcESaIcEEEN7testing8internal12CodeLocationEEEE10deallocateEPSE_m
FN:132,_ZNK9__gnu_cxx13new_allocatorISt13_Rb_tree_nodeISt4pairIKNSt7__cxx1112basic_stringIcSt11char_traitsIcESaIcEEEN7testing8internal12CodeLocationEEEE8max_sizeEv
FNDA:3,_ZNK9__gnu_cxx13new_allocatorISt13_Rb_tree_nodeISt4pairIKNSt7__cxx1112basic_stringIcSt11char_traitsIcESaIcEEEN7testing8internal12CodeLocationEEEE8max_sizeEv
FN:132,_ZNK9__gnu_cxx13new_allocatorINSt7__cxx1112basic_stringIcSt11char_traitsIcESaIcEEEE8max_sizeEv
FNDA:37,_ZNK9__gnu_cxx13new_allocatorINSt7__cxx1112basic_stringIcSt11char_traitsIcESaIcEEEE8max_sizeEv
FN:144,_ZN9__gnu_cxx13new_allocatorISt13_Rb_tree_nodeISt4pairIKNSt7__cxx1112basic_stringIcSt11char_traitsIcESaIcEEEN7testing8internal12CodeLocationEEEE9constructISD_JS2_IPKcSC_EEEEvPT_DpOT0_
FNDA:3,_ZN9__gnu_cxx13new_allocatorISt13_Rb_tree_nodeISt4pairIKNSt7__cxx1112basic_stringIcSt11char_traitsIcESaIcEEEN7testing8internal12CodeLocationEEEE9constructISD_JS2_IPKcSC_EEEEvPT_DpOT0_
FN:144,_ZN9__gnu_cxx13new_allocatorINSt7__cxx1112basic_stringIcSt11char_traitsIcESaIcEEEE9constructIS6_JS6_EEEvPT_DpOT0_
FNDA:19,_ZN9__gnu_cxx13new_allocatorINSt7__cxx1112basic_stringIcSt11char_traitsIcESaIcEEEE9constructIS6_JS6_EEEvPT_DpOT0_
FN:151,_ZN9__gnu_cxx13new_allocatorISt13_Rb_tree_nodeISt4pairIKNSt7__cxx1112basic_stringIcSt11char_traitsIcESaIcEEEN7testing8internal12CodeLocationEEEE7destroyISD_EEvPT_
FNDA:3,_ZN9__gnu_cxx13new_allocatorISt13_Rb_tree_nodeISt4pairIKNSt7__cxx1112basic_stringIcSt11char_traitsIcESaIcEEEN7testing8internal12CodeLocationEEEE7destroyISD_EEvPT_
FN:151,_ZN9__gnu_cxx13new_allocatorINSt7__cxx1112basic_stringIcSt11char_traitsIcESaIcEEEE7destroyIS6_EEvPT_
FNDA:7,_ZN9__gnu_cxx13new_allocatorINSt7__cxx1112basic_stringIcSt11char_traitsIcESaIcEEEE7destroyIS6_EEvPT_
DA:80,6
DA:80,1
DA:80,0
DA:83,0
DA:89,10
DA:89,1
DA:89,0
DA:102,13
DA:104,13
BRDA:104,0,0,0
BRDA:104,0,1,13
DA:105,0
DA:114,13
DA:102,3
DA:104,3
BRDA:104,0,0,0
BRDA:104,0,1,3
DA:105,0
DA:114,3
DA:119,3
DA:128,3
DA:129,3
DA:119,13
DA:128,13
DA:129,13
DA:132,37
DA:135,37
DA:132,3
DA:135,3
DA:144,19
DA:147,19
DA:144,3
DA:147,3
BRDA:147,0,0,3
BRDA:147,0,1,0
DA:151,7
DA:153,7
DA:151,3
DA:153,3
end_of_record
SF:/usr/include/c++/9/bits/stl_iterator.h
FN:806,_ZN9__gnu_cxx17__normal_iteratorIPNSt7__cxx1112basic_stringIcSt11char_traitsIcESaIcEEESt6vectorIS6_SaIS6_EEEC2ERKS7_
FNDA:29,_ZN9__gnu_cxx17__normal_iteratorIPNSt7__cxx1112basic_stringIcSt11char_traitsIcESaIcEEESt6vectorIS6_SaIS6_EEEC2ERKS7_
FN:811,_ZN9__gnu_cxx17__normal_iteratorIPKcNSt7__cxx1112basic_stringIcSt11char_traitsIcESaIcEEEEC2IPcEERKNS0_IT_NS_11__enable_ifIXsrSt10__are_sameISC_SB_E7__valueES8_E6__typeEEE
FNDA:0,_ZN9__gnu_cxx17__normal_iteratorIPKcNSt7__cxx1112basic_stringIcSt11char_traitsIcESaIcEEEEC2IPcEERKNS0_IT_NS_11__enable_ifIXsrSt10__are_sameISC_SB_E7__valueES8_E6__typeEEE
FN:819,_ZNK9__gnu_cxx17__normal_iteratorIPcNSt7__cxx1112basic_stringIcSt11char_traitsIcESaIcEEEEdeEv
FNDA:44,_ZNK9__gnu_cxx17__normal_iteratorIPcNSt7__cxx1112basic_stringIcSt11char_traitsIcESaIcEEEEdeEv
FN:839,_ZN9__gnu_cxx17__normal_iteratorIPcNSt7__cxx1112basic_stringIcSt11char_traitsIcESaIcEEEEmmEv
FNDA:18,_ZN9__gnu_cxx17__normal_iteratorIPcNSt7__cxx1112basic_stringIcSt11char_traitsIcESaIcEEEEmmEv
FN:871,_ZNK9__gnu_cxx17__normal_iteratorIPNSt7__cxx1112basic_stringIcSt11char_traitsIcESaIcEEESt6vectorIS6_SaIS6_EEE4baseEv
FNDA:53,_ZNK9__gnu_cxx17__normal_iteratorIPNSt7__cxx1112basic_stringIcSt11char_traitsIcESaIcEEESt6vectorIS6_SaIS6_EEE4baseEv
FN:871,_ZNK9__gnu_cxx17__normal_iteratorIPcNSt7__cxx1112basic_stringIcSt11char_traitsIcESaIcEEEE4baseEv
FNDA:90,_ZNK9__gnu_cxx17__normal_iteratorIPcNSt7__cxx1112basic_stringIcSt11char_traitsIcESaIcEEEE4baseEv
FN:907,_ZN9__gnu_cxxneIPcNSt7__cxx1112basic_stringIcSt11char_traitsIcESaIcEEEEEbRKNS_17__normal_iteratorIT_T0_EESD_
FNDA:45,_ZN9__gnu_cxxneIPcNSt7__cxx1112basic_stringIcSt11char_traitsIcESaIcEEEEEbRKNS_17__normal_iteratorIT_T0_EESD_
FN:989,_ZN9__gnu_cxxmiIPNSt7__cxx1112basic_stringIcSt11char_traitsIcESaIcEEESt6vectorIS6_SaIS6_EEEENS_17__normal_iteratorIT_T0_E15difference_typeERKSE_SH_
FNDA:12,_ZN9__gnu_cxxmiIPNSt7__cxx1112basic_stringIcSt11char_traitsIcESaIcEEESt6vectorIS6_SaIS6_EEEENS_17__normal_iteratorIT_T0_E15difference_typeERKSE_SH_
FN:1057,_ZNSt13move_iteratorIPNSt7__cxx1112basic_stringIcSt11char_traitsIcESaIcEEEEC2ES6_
FNDA:0,_ZNSt13move_iteratorIPNSt7__cxx1112basic_stringIcSt11char_traitsIcESaIcEEEEC2ES6_
FN:1066,_ZNKSt13move_iteratorIPNSt7__cxx1112basic_stringIcSt11char_traitsIcESaIcEEEE4baseEv
FNDA:0,_ZNKSt13move_iteratorIPNSt7__cxx1112basic_stringIcSt11char_traitsIcESaIcEEEE4baseEv
FN:1070,_ZNKSt13move_iteratorIPNSt7__cxx1112basic_stringIcSt11char_traitsIcESaIcEEEEdeEv
FNDA:0,_ZNKSt13move_iteratorIPNSt7__cxx1112basic_stringIcSt11char_traitsIcESaIcEEEEdeEv
FN:1078,_ZNSt13move_iteratorIPNSt7__cxx1112basic_stringIcSt11char_traitsIcESaIcEEEEppEv
FNDA:0,_ZNSt13move_iteratorIPNSt7__cxx1112basic_stringIcSt11char_traitsIcESaIcEEEEppEv
FN:1145,_ZSteqIPNSt7__cxx1112basic_stringIcSt11char_traitsIcESaIcEEEEbRKSt13move_iteratorIT_ESB_
FNDA:0,_ZSteqIPNSt7__cxx1112basic_stringIcSt11char_traitsIcESaIcEEEEbRKSt13move_iteratorIT_ESB_
FN:1157,_ZStneIPNSt7__cxx1112basic_stringIcSt11char_traitsIcESaIcEEEEbRKSt13move_iteratorIT_ESB_
FNDA:0,_ZStneIPNSt7__cxx1112basic_stringIcSt11char_traitsIcESaIcEEEEbRKSt13move_iteratorIT_ESB_
FN:1242,_ZSt32__make_move_if_noexcept_iteratorINSt7__cxx1112basic_stringIcSt11char_traitsIcESaIcEEESt13move_iteratorIPS5_EET0_PT_
FNDA:0,_ZSt32__make_move_if_noexcept_iteratorINSt7__cxx1112basic_stringIcSt11char_traitsIcESaIcEEESt13move_iteratorIPS5_EET0_PT_
DA:806,29
DA:807,29
DA:811,0
DA:815,0
DA:819,44
DA:820,44
DA:839,18
DA:841,18
DA:842,18
DA:871,53
DA:872,53
DA:871,90
DA:872,90
DA:907,45
DA:910,45
DA:989,12
DA:992,12
DA:1057,0
DA:1058,0
DA:1066,0
DA:1067,0
DA:1070,0
DA:1071,0
DA:1078,0
DA:1080,0
DA:1081,0
DA:1145,0
DA:1147,0
DA:1157,0
DA:1159,0
DA:1242,0
DA:1243,0
end_of_record
SF:/usr/include/c++/9/bits/vector.tcc
FN:109,_ZNSt6vectorINSt7__cxx1112basic_stringIcSt11char_traitsIcESaIcEEESaIS5_EE12emplace_backIJS5_EEEvDpOT_
FNDA:12,_ZNSt6vectorINSt7__cxx1112basic_stringIcSt11char_traitsIcESaIcEEESaIS5_EE12emplace_backIJS5_EEEvDpOT_
FN:426,_ZNSt6vectorINSt7__cxx1112basic_stringIcSt11char_traitsIcESaIcEEESaIS5_EE17_M_realloc_insertIJS5_EEEvN9__gnu_cxx17__normal_iteratorIPS5_S7_EEDpOT_
FNDA:12,_ZNSt6vectorINSt7__cxx1112basic_stringIcSt11char_traitsIcESaIcEEESaIS5_EE17_M_realloc_insertIJS5_EEEvN9__gnu_cxx17__normal_iteratorIPS5_S7_EEDpOT_
DA:109,12
DA:112,12
BRDA:112,0,0,0
BRDA:112,0,1,12
DA:115,0
DA:117,0
DA:121,12
DA:125,12
DA:426,12
DA:435,12
DA:437,12
DA:438,12
DA:439,12
DA:440,12
DA:441,12
DA:449,12
DA:450,12
DA:456,12
DA:459,12
BRDA:459,0,0,12
BRDA:459,0,1,0
BRDA:459,0,2,12
BRDA:459,0,3,0
DA:461,12
DA:462,12
DA:464,12
DA:466,12
DA:467,12
DA:474,0
BRDA:474,0,0,-
BRDA:474,0,1,-
DA:475,0
DA:477,0
DA:481,0
BRDA:481,0,0,-
BRDA:481,0,1,-
DA:482,0
DA:485,0
DA:487,0
BRDA:487,0,0,0
BRDA:487,0,1,0
DA:488,0
DA:489,0
DA:491,0
BRDA:491,0,0,0
BRDA:491,0,1,0
DA:492,0
BRDA:492,0,0,0
BRDA:492,0,1,0
DA:493,0
DA:496,12
BRDA:496,0,0,0
BRDA:496,0,1,12
DA:498,0
DA:500,12
DA:501,12
DA:502,12
DA:503,12
DA:504,12
DA:505,12
end_of_record
SF:/usr/local/include/gtest/internal/gtest-internal.h
FN:435,_ZN7testing8internal9GetTypeIdIN12_GLOBAL__N_114PrimeTableTestI18OnTheFlyPrimeTableEEEEPKvv
FNDA:3,_ZN7testing8internal9GetTypeIdIN12_GLOBAL__N_114PrimeTableTestI18OnTheFlyPrimeTableEEEEPKvv
FN:435,_ZN7testing8internal9GetTypeIdIN12_GLOBAL__N_114PrimeTableTestI23PreCalculatedPrimeTableEEEEPKvv
FNDA:3,_ZN7testing8internal9GetTypeIdIN12_GLOBAL__N_114PrimeTableTestI23PreCalculatedPrimeTableEEEEPKvv
FN:435,_ZN7testing8internal9GetTypeIdIN12_GLOBAL__N_115PrimeTableTest2I18OnTheFlyPrimeTableEEEEPKvv
FNDA:3,_ZN7testing8internal9GetTypeIdIN12_GLOBAL__N_115PrimeTableTest2I18OnTheFlyPrimeTableEEEEPKvv
FN:435,_ZN7testing8internal9GetTypeIdIN12_GLOBAL__N_115PrimeTableTest2I23PreCalculatedPrimeTableEEEEPKvv
FNDA:3,_ZN7testing8internal9GetTypeIdIN12_GLOBAL__N_115PrimeTableTest2I23PreCalculatedPrimeTableEEEEPKvv
FN:454,_ZN7testing8internal15TestFactoryBaseD2Ev
FNDA:12,_ZN7testing8internal15TestFactoryBaseD2Ev
FN:454,_ZN7testing8internal15TestFactoryBaseD0Ev
FNDA:0,_ZN7testing8internal15TestFactoryBaseD0Ev
FN:461,_ZN7testing8internal15TestFactoryBaseC2Ev
FNDA:12,_ZN7testing8internal15TestFactoryBaseC2Ev
FN:472,_ZN7testing8internal15TestFactoryImplIN12_GLOBAL__N_140PrimeTableTest_ReturnsTrueForPrimes_TestI18OnTheFlyPrimeTableEEE10CreateTestEv
FNDA:1,_ZN7testing8internal15TestFactoryImplIN12_GLOBAL__N_140PrimeTableTest_ReturnsTrueForPrimes_TestI18OnTheFlyPrimeTableEEE10CreateTestEv
FN:472,_ZN7testing8internal15TestFactoryImplIN12_GLOBAL__N_128gtest_suite_PrimeTableTest2_15CanGetNextPrimeI23PreCalculatedPrimeTableEEE10CreateTestEv
FNDA:1,_ZN7testing8internal15TestFactoryImplIN12_GLOBAL__N_128gtest_suite_PrimeTableTest2_15CanGetNextPrimeI23PreCalculatedPrimeTableEEE10CreateTestEv
FN:472,_ZN7testing8internal15TestFactoryImplIN12_GLOBAL__N_128gtest_suite_PrimeTableTest2_15CanGetNextPrimeI18OnTheFlyPrimeTableEEE10CreateTestEv
FNDA:1,_ZN7testing8internal15TestFactoryImplIN12_GLOBAL__N_128gtest_suite_PrimeTableTest2_15CanGetNextPrimeI18OnTheFlyPrimeTableEEE10CreateTestEv
FN:472,_ZN7testing8internal15TestFactoryImplIN12_GLOBAL__N_128gtest_suite_PrimeTableTest2_20ReturnsTrueForPrimesI18OnTheFlyPrimeTableEEE10CreateTestEv
FNDA:1,_ZN7testing8internal15TestFactoryImplIN12_GLOBAL__N_128gtest_suite_PrimeTableTest2_20ReturnsTrueForPrimesI18OnTheFlyPrimeTableEEE10CreateTestEv
FN:472,_ZN7testing8internal15TestFactoryImplIN12_GLOBAL__N_144PrimeTableTest_ReturnsFalseForNonPrimes_TestI18OnTheFlyPrimeTableEEE10CreateTestEv
FNDA:1,_ZN7testing8internal15TestFactoryImplIN12_GLOBAL__N_144PrimeTableTest_ReturnsFalseForNonPrimes_TestI18OnTheFlyPrimeTableEEE10CreateTestEv
FN:472,_ZN7testing8internal15TestFactoryImplIN12_GLOBAL__N_135PrimeTableTest_CanGetNextPrime_TestI18OnTheFlyPrimeTableEEE10CreateTestEv
FNDA:1,_ZN7testing8internal15TestFactoryImplIN12_GLOBAL__N_135PrimeTableTest_CanGetNextPrime_TestI18OnTheFlyPrimeTableEEE10CreateTestEv
FN:472,_ZN7testing8internal15TestFactoryImplIN12_GLOBAL__N_144PrimeTableTest_ReturnsFalseForNonPrimes_TestI23PreCalculatedPrimeTableEEE10CreateTestEv
FNDA:1,_ZN7testing8internal15TestFactoryImplIN12_GLOBAL__N_144PrimeTableTest_ReturnsFalseForNonPrimes_TestI23PreCalculatedPrimeTableEEE10CreateTestEv
FN:472,_ZN7testing8internal15TestFactoryImplIN12_GLOBAL__N_140PrimeTableTest_ReturnsTrueForPrimes_TestI23PreCalculatedPrimeTableEEE10CreateTestEv
FNDA:1,_ZN7testing8internal15TestFactoryImplIN12_GLOBAL__N_140PrimeTableTest_ReturnsTrueForPrimes_TestI23PreCalculatedPrimeTableEEE10CreateTestEv
FN:472,_ZN7testing8internal15TestFactoryImplIN12_GLOBAL__N_135PrimeTableTest_CanGetNextPrime_TestI23PreCalculatedPrimeTableEEE10CreateTestEv
FNDA:1,_ZN7testing8internal15TestFactoryImplIN12_GLOBAL__N_135PrimeTableTest_CanGetNextPrime_TestI23PreCalculatedPrimeTableEEE10CreateTestEv
FN:472,_ZN7testing8internal15TestFactoryImplIN12_GLOBAL__N_128gtest_suite_PrimeTableTest2_24ReturnsFalseForNonPrimesI18OnTheFlyPrimeTableEEE10CreateTestEv
FNDA:1,_ZN7testing8internal15TestFactoryImplIN12_GLOBAL__N_128gtest_suite_PrimeTableTest2_24ReturnsFalseForNonPrimesI18OnTheFlyPrimeTableEEE10CreateTestEv
FN:472,_ZN7testing8internal15TestFactoryImplIN12_GLOBAL__N_128gtest_suite_PrimeTableTest2_24ReturnsFalseForNonPrimesI23PreCalculatedPrimeTableEEE10CreateTestEv
FNDA:1,_ZN7testing8internal15TestFactoryImplIN12_GLOBAL__N_128gtest_suite_PrimeTableTest2_24ReturnsFalseForNonPrimesI23PreCalculatedPrimeTableEEE10CreateTestEv
FN:472,_ZN7testing8internal15TestFactoryImplIN12_GLOBAL__N_128gtest_suite_PrimeTableTest2_20ReturnsTrueForPrimesI23PreCalculatedPrimeTableEEE10CreateTestEv
FNDA:1,_ZN7testing8internal15TestFactoryImplIN12_GLOBAL__N_128gtest_suite_PrimeTableTest2_20ReturnsTrueForPrimesI23PreCalculatedPrimeTableEEE10CreateTestEv
FN:493,_ZN7testing8internal12CodeLocationC2ERKNSt7__cxx1112basic_stringIcSt11char_traitsIcESaIcEEEi
FNDA:8,_ZN7testing8internal12CodeLocationC2ERKNSt7__cxx1112basic_stringIcSt11char_traitsIcESaIcEEEi
FN:506,_ZN7testing8internal19GetNotDefaultOrNullEPFvvES2_
FNDA:48,_ZN7testing8internal19GetNotDefaultOrNullEPFvvES2_
FN:521,_ZN7testing8internal16SuiteApiResolverIN12_GLOBAL__N_144PrimeTableTest_ReturnsFalseForNonPrimes_TestI23PreCalculatedPrimeTableEEE19GetSetUpCaseOrSuiteEPKci
FNDA:1,_ZN7testing8internal16SuiteApiResolverIN12_GLOBAL__N_144PrimeTableTest_ReturnsFalseForNonPrimes_TestI23PreCalculatedPrimeTableEEE19GetSetUpCaseOrSuiteEPKci
FN:521,_ZN7testing8internal16SuiteApiResolverIN12_GLOBAL__N_128gtest_suite_PrimeTableTest2_15CanGetNextPrimeI23PreCalculatedPrimeTableEEE19GetSetUpCaseOrSuiteEPKci
FNDA:1,_ZN7testing8internal16SuiteApiResolverIN12_GLOBAL__N_128gtest_suite_PrimeTableTest2_15CanGetNextPrimeI23PreCalculatedPrimeTableEEE19GetSetUpCaseOrSuiteEPKci
FN:521,_ZN7testing8internal16SuiteApiResolverIN12_GLOBAL__N_144PrimeTableTest_ReturnsFalseForNonPrimes_TestI18OnTheFlyPrimeTableEEE19GetSetUpCaseOrSuiteEPKci
FNDA:1,_ZN7testing8internal16SuiteApiResolverIN12_GLOBAL__N_144PrimeTableTest_ReturnsFalseForNonPrimes_TestI18OnTheFlyPrimeTableEEE19GetSetUpCaseOrSuiteEPKci
FN:521,_ZN7testing8internal16SuiteApiResolverIN12_GLOBAL__N_140PrimeTableTest_ReturnsTrueForPrimes_TestI18OnTheFlyPrimeTableEEE19GetSetUpCaseOrSuiteEPKci
FNDA:1,_ZN7testing8internal16SuiteApiResolverIN12_GLOBAL__N_140PrimeTableTest_ReturnsTrueForPrimes_TestI18OnTheFlyPrimeTableEEE19GetSetUpCaseOrSuiteEPKci
FN:521,_ZN7testing8internal16SuiteApiResolverIN12_GLOBAL__N_135PrimeTableTest_CanGetNextPrime_TestI18OnTheFlyPrimeTableEEE19GetSetUpCaseOrSuiteEPKci
FNDA:1,_ZN7testing8internal16SuiteApiResolverIN12_GLOBAL__N_135PrimeTableTest_CanGetNextPrime_TestI18OnTheFlyPrimeTableEEE19GetSetUpCaseOrSuiteEPKci
FN:521,_ZN7testing8internal16SuiteApiResolverIN12_GLOBAL__N_140PrimeTableTest_ReturnsTrueForPrimes_TestI23PreCalculatedPrimeTableEEE19GetSetUpCaseOrSuiteEPKci
FNDA:1,_ZN7testing8internal16SuiteApiResolverIN12_GLOBAL__N_140PrimeTableTest_ReturnsTrueForPrimes_TestI23PreCalculatedPrimeTableEEE19GetSetUpCaseOrSuiteEPKci
FN:521,_ZN7testing8internal16SuiteApiResolverIN12_GLOBAL__N_135PrimeTableTest_CanGetNextPrime_TestI23PreCalculatedPrimeTableEEE19GetSetUpCaseOrSuiteEPKci
FNDA:1,_ZN7testing8internal16SuiteApiResolverIN12_GLOBAL__N_135PrimeTableTest_CanGetNextPrime_TestI23PreCalculatedPrimeTableEEE19GetSetUpCaseOrSuiteEPKci
FN:521,_ZN7testing8internal16SuiteApiResolverIN12_GLOBAL__N_128gtest_suite_PrimeTableTest2_24ReturnsFalseForNonPrimesI18OnTheFlyPrimeTableEEE19GetSetUpCaseOrSuiteEPKci
FNDA:1,_ZN7testing8internal16SuiteApiResolverIN12_GLOBAL__N_128gtest_suite_PrimeTableTest2_24ReturnsFalseForNonPrimesI18OnTheFlyPrimeTableEEE19GetSetUpCaseOrSuiteEPKci
FN:521,_ZN7testing8internal16SuiteApiResolverIN12_GLOBAL__N_128gtest_suite_PrimeTableTest2_15CanGetNextPrimeI18OnTheFlyPrimeTableEEE19GetSetUpCaseOrSuiteEPKci
FNDA:1,_ZN7testing8internal16SuiteApiResolverIN12_GLOBAL__N_128gtest_suite_PrimeTableTest2_15CanGetNextPrimeI18OnTheFlyPrimeTableEEE19GetSetUpCaseOrSuiteEPKci
FN:521,_ZN7testing8internal16SuiteApiResolverIN12_GLOBAL__N_128gtest_suite_PrimeTableTest2_20ReturnsTrueForPrimesI23PreCalculatedPrimeTableEEE19GetSetUpCaseOrSuiteEPKci
FNDA:1,_ZN7testing8internal16SuiteApiResolverIN12_GLOBAL__N_128gtest_suite_PrimeTableTest2_20ReturnsTrueForPrimesI23PreCalculatedPrimeTableEEE19GetSetUpCaseOrSuiteEPKci
FN:521,_ZN7testing8internal16SuiteApiResolverIN12_GLOBAL__N_128gtest_suite_PrimeTableTest2_24ReturnsFalseForNonPrimesI23PreCalculatedPrimeTableEEE19GetSetUpCaseOrSuiteEPKci
FNDA:1,_ZN7testing8internal16SuiteApiResolverIN12_GLOBAL__N_128gtest_suite_PrimeTableTest2_24ReturnsFalseForNonPrimesI23PreCalculatedPrimeTableEEE19GetSetUpCaseOrSuiteEPKci
FN:521,_ZN7testing8internal16SuiteApiResolverIN12_GLOBAL__N_128gtest_suite_PrimeTableTest2_20ReturnsTrueForPrimesI18OnTheFlyPrimeTableEEE19GetSetUpCaseOrSuiteEPKci
FNDA:1,_ZN7testing8internal16SuiteApiResolverIN12_GLOBAL__N_128gtest_suite_PrimeTableTest2_20ReturnsTrueForPrimesI18OnTheFlyPrimeTableEEE19GetSetUpCaseOrSuiteEPKci
FN:536,_ZN7testing8internal16SuiteApiResolverIN12_GLOBAL__N_128gtest_suite_PrimeTableTest2_20ReturnsTrueForPrimesI23PreCalculatedPrimeTableEEE22GetTearDownCaseOrSuiteEPKci
FNDA:1,_ZN7testing8internal16SuiteApiResolverIN12_GLOBAL__N_128gtest_suite_PrimeTableTest2_20ReturnsTrueForPrimesI23PreCalculatedPrimeTableEEE22GetTearDownCaseOrSuiteEPKci
FN:536,_ZN7testing8internal16SuiteApiResolverIN12_GLOBAL__N_128gtest_suite_PrimeTableTest2_15CanGetNextPrimeI23PreCalculatedPrimeTableEEE22GetTearDownCaseOrSuiteEPKci
FNDA:1,_ZN7testing8internal16SuiteApiResolverIN12_GLOBAL__N_128gtest_suite_PrimeTableTest2_15CanGetNextPrimeI23PreCalculatedPrimeTableEEE22GetTearDownCaseOrSuiteEPKci
FN:536,_ZN7testing8internal16SuiteApiResolverIN12_GLOBAL__N_144PrimeTableTest_ReturnsFalseForNonPrimes_TestI18OnTheFlyPrimeTableEEE22GetTearDownCaseOrSuiteEPKci
FNDA:1,_ZN7testing8internal16SuiteApiResolverIN12_GLOBAL__N_144PrimeTableTest_ReturnsFalseForNonPrimes_TestI18OnTheFlyPrimeTableEEE22GetTearDownCaseOrSuiteEPKci
FN:536,_ZN7testing8internal16SuiteApiResolverIN12_GLOBAL__N_128gtest_suite_PrimeTableTest2_20ReturnsTrueForPrimesI18OnTheFlyPrimeTableEEE22GetTearDownCaseOrSuiteEPKci
FNDA:1,_ZN7testing8internal16SuiteApiResolverIN12_GLOBAL__N_128gtest_suite_PrimeTableTest2_20ReturnsTrueForPrimesI18OnTheFlyPrimeTableEEE22GetTearDownCaseOrSuiteEPKci
FN:536,_ZN7testing8internal16SuiteApiResolverIN12_GLOBAL__N_140PrimeTableTest_ReturnsTrueForPrimes_TestI18OnTheFlyPrimeTableEEE22GetTearDownCaseOrSuiteEPKci
FNDA:1,_ZN7testing8internal16SuiteApiResolverIN12_GLOBAL__N_140PrimeTableTest_ReturnsTrueForPrimes_TestI18OnTheFlyPrimeTableEEE22GetTearDownCaseOrSuiteEPKci
FN:536,_ZN7testing8internal16SuiteApiResolverIN12_GLOBAL__N_135PrimeTableTest_CanGetNextPrime_TestI18OnTheFlyPrimeTableEEE22GetTearDownCaseOrSuiteEPKci
FNDA:1,_ZN7testing8internal16SuiteApiResolverIN12_GLOBAL__N_135PrimeTableTest_CanGetNextPrime_TestI18OnTheFlyPrimeTableEEE22GetTearDownCaseOrSuiteEPKci
FN:536,_ZN7testing8internal16SuiteApiResolverIN12_GLOBAL__N_144PrimeTableTest_ReturnsFalseForNonPrimes_TestI23PreCalculatedPrimeTableEEE22GetTearDownCaseOrSuiteEPKci
FNDA:1,_ZN7testing8internal16SuiteApiResolverIN12_GLOBAL__N_144PrimeTableTest_ReturnsFalseForNonPrimes_TestI23PreCalculatedPrimeTableEEE22GetTearDownCaseOrSuiteEPKci
FN:536,_ZN7testing8internal16SuiteApiResolverIN12_GLOBAL__N_140PrimeTableTest_ReturnsTrueForPrimes_TestI23PreCalculatedPrimeTableEEE22GetTearDownCaseOrSuiteEPKci
FNDA:1,_ZN7testing8internal16SuiteApiResolverIN12_GLOBAL__N_140PrimeTableTest_ReturnsTrueForPrimes_TestI23PreCalculatedPrimeTableEEE22GetTearDownCaseOrSuiteEPKci
FN:536,_ZN7testing8internal16SuiteApiResolverIN12_GLOBAL__N_128gtest_suite_PrimeTableTest2_24ReturnsFalseForNonPrimesI23PreCalculatedPrimeTableEEE22GetTearDownCaseOrSuiteEPKci
FNDA:1,_ZN7testing8internal16SuiteApiResolverIN12_GLOBAL__N_128gtest_suite_PrimeTableTest2_24ReturnsFalseForNonPrimesI23PreCalculatedPrimeTableEEE22GetTearDownCaseOrSuiteEPKci
FN:536,_ZN7testing8internal16SuiteApiResolverIN12_GLOBAL__N_135PrimeTableTest_CanGetNextPrime_TestI23PreCalculatedPrimeTableEEE22GetTearDownCaseOrSuiteEPKci
FNDA:1,_ZN7testing8internal16SuiteApiResolverIN12_GLOBAL__N_135PrimeTableTest_CanGetNextPrime_TestI23PreCalculatedPrimeTableEEE22GetTearDownCaseOrSuiteEPKci
FN:536,_ZN7testing8internal16SuiteApiResolverIN12_GLOBAL__N_128gtest_suite_PrimeTableTest2_24ReturnsFalseForNonPrimesI18OnTheFlyPrimeTableEEE22GetTearDownCaseOrSuiteEPKci
FNDA:1,_ZN7testing8internal16SuiteApiResolverIN12_GLOBAL__N_128gtest_suite_PrimeTableTest2_24ReturnsFalseForNonPrimesI18OnTheFlyPrimeTableEEE22GetTearDownCaseOrSuiteEPKci
FN:536,_ZN7testing8internal16SuiteApiResolverIN12_GLOBAL__N_128gtest_suite_PrimeTableTest2_15CanGetNextPrimeI18OnTheFlyPrimeTableEEE22GetTearDownCaseOrSuiteEPKci
FNDA:1,_ZN7testing8internal16SuiteApiResolverIN12_GLOBAL__N_128gtest_suite_PrimeTableTest2_15CanGetNextPrimeI18OnTheFlyPrimeTableEEE22GetTearDownCaseOrSuiteEPKci
FN:589,_ZN7testing8internal20TypedTestSuitePStateC2Ev
FNDA:1,_ZN7testing8internal20TypedTestSuitePStateC2Ev
FN:594,_ZN7testing8internal20TypedTestSuitePState11AddTestNameEPKciS3_S3_
FNDA:3,_ZN7testing8internal20TypedTestSuitePState11AddTestNameEPKciS3_S3_
FN:609,_ZNK7testing8internal20TypedTestSuitePState10TestExistsERKNSt7__cxx1112basic_stringIcSt11char_traitsIcESaIcEEE
FNDA:3,_ZNK7testing8internal20TypedTestSuitePState10TestExistsERKNSt7__cxx1112basic_stringIcSt11char_traitsIcESaIcEEE
FN:613,_ZNK7testing8internal20TypedTestSuitePState15GetCodeLocationERKNSt7__cxx1112basic_stringIcSt11char_traitsIcESaIcEEE
FNDA:3,_ZNK7testing8internal20TypedTestSuitePState15GetCodeLocationERKNSt7__cxx1112basic_stringIcSt11char_traitsIcESaIcEEE
FN:642,_ZN7testing8internal9SkipCommaEPKc
FNDA:6,_ZN7testing8internal9SkipCommaEPKc
FN:653,_ZN7testing8internal19GetPrefixUntilCommaB5cxx11EPKc
FNDA:18,_ZN7testing8internal19GetPrefixUntilCommaB5cxx11EPKc
FN:667,_ZN7testing8internal20DefaultNameGenerator7GetNameI23PreCalculatedPrimeTableEENSt7__cxx1112basic_stringIcSt11char_traitsIcESaIcEEEi
FNDA:4,_ZN7testing8internal20DefaultNameGenerator7GetNameI23PreCalculatedPrimeTableEENSt7__cxx1112basic_stringIcSt11char_traitsIcESaIcEEEi
FN:667,_ZN7testing8internal20DefaultNameGenerator7GetNameI18OnTheFlyPrimeTableEENSt7__cxx1112basic_stringIcSt11char_traitsIcESaIcEEEi
FNDA:4,_ZN7testing8internal20DefaultNameGenerator7GetNameI18OnTheFlyPrimeTableEENSt7__cxx1112basic_stringIcSt11char_traitsIcESaIcEEEi
FN:678,_ZN7testing8internal24GenerateNamesRecursivelyINS0_20DefaultNameGeneratorEEEvNS0_4NoneEPSt6vectorINSt7__cxx1112basic_stringIcSt11char_traitsIcESaIcEEESaISA_EEi
FNDA:4,_ZN7testing8internal24GenerateNamesRecursivelyINS0_20DefaultNameGeneratorEEEvNS0_4NoneEPSt6vectorINSt7__cxx1112basic_stringIcSt11char_traitsIcESaIcEEESaISA_EEi
FN:681,_ZN7testing8internal24GenerateNamesRecursivelyINS0_20DefaultNameGeneratorENS0_5TypesI23PreCalculatedPrimeTableJEEEEEvT0_PSt6vectorINSt7__cxx1112basic_stringIcSt11char_traitsIcESaIcEEESaISD_EEi
FNDA:4,_ZN7testing8internal24GenerateNamesRecursivelyINS0_20DefaultNameGeneratorENS0_5TypesI23PreCalculatedPrimeTableJEEEEEvT0_PSt6vectorINSt7__cxx1112basic_stringIcSt11char_traitsIcESaIcEEESaISD_EEi
FN:681,_ZN7testing8internal24GenerateNamesRecursivelyINS0_20DefaultNameGeneratorENS0_5TypesI18OnTheFlyPrimeTableJ23PreCalculatedPrimeTableEEEEEvT0_PSt6vectorINSt7__cxx1112basic_stringIcSt11char_traitsIcESaIcEEESaISE_EEi
FNDA:4,_ZN7testing8internal24GenerateNamesRecursivelyINS0_20DefaultNameGeneratorENS0_5TypesI18OnTheFlyPrimeTableJ23PreCalculatedPrimeTableEEEEEvT0_PSt6vectorINSt7__cxx1112basic_stringIcSt11char_traitsIcESaIcEEESaISE_EEi
FN:688,_ZN7testing8internal13GenerateNamesINS0_20DefaultNameGeneratorENS0_5TypesI18OnTheFlyPrimeTableJ23PreCalculatedPrimeTableEEEEESt6vectorINSt7__cxx1112basic_stringIcSt11char_traitsIcESaIcEEESaISD_EEv
FNDA:4,_ZN7testing8internal13GenerateNamesINS0_20DefaultNameGeneratorENS0_5TypesI18OnTheFlyPrimeTableJ23PreCalculatedPrimeTableEEEEESt6vectorINSt7__cxx1112basic_stringIcSt11char_traitsIcESaIcEEESaISD_EEv
FN:708,_ZN7testing8internal21TypeParameterizedTestIN12_GLOBAL__N_114PrimeTableTestENS0_11TemplateSelINS2_40PrimeTableTest_ReturnsTrueForPrimes_TestEEENS0_5TypesI23PreCalculatedPrimeTableJEEEE8RegisterEPKcRKNS0_12CodeLocationESC_SC_iRKSt6vectorINSt7__cxx1112basic_stringIcSt11char_traitsIcESaIcEEESaISM_EE
FNDA:1,_ZN7testing8internal21TypeParameterizedTestIN12_GLOBAL__N_114PrimeTableTestENS0_11TemplateSelINS2_40PrimeTableTest_ReturnsTrueForPrimes_TestEEENS0_5TypesI23PreCalculatedPrimeTableJEEEE8RegisterEPKcRKNS0_12CodeLocationESC_SC_iRKSt6vectorINSt7__cxx1112basic_stringIcSt11char_traitsIcESaIcEEESaISM_EE
FN:708,_ZN7testing8internal21TypeParameterizedTestIN12_GLOBAL__N_115PrimeTableTest2ENS0_11TemplateSelINS2_28gtest_suite_PrimeTableTest2_15CanGetNextPrimeEEENS0_5TypesI23PreCalculatedPrimeTableJEEEE8RegisterEPKcRKNS0_12CodeLocationESD_SD_iRKSt6vectorINSt7__cxx1112basic_stringIcSt11char_traitsIcESaIcEEESaISN_EE
FNDA:1,_ZN7testing8internal21TypeParameterizedTestIN12_GLOBAL__N_115PrimeTableTest2ENS0_11TemplateSelINS2_28gtest_suite_PrimeTableTest2_15CanGetNextPrimeEEENS0_5TypesI23PreCalculatedPrimeTableJEEEE8RegisterEPKcRKNS0_12CodeLocationESD_SD_iRKSt6vectorINSt7__cxx1112basic_stringIcSt11char_traitsIcESaIcEEESaISN_EE
FN:708,_ZN7testing8internal21TypeParameterizedTestIN12_GLOBAL__N_115PrimeTableTest2ENS0_11TemplateSelINS2_28gtest_suite_PrimeTableTest2_24ReturnsFalseForNonPrimesEEENS0_5TypesI18OnTheFlyPrimeTableJ23PreCalculatedPrimeTableEEEE8RegisterEPKcRKNS0_12CodeLocationESE_SE_iRKSt6vectorINSt7__cxx1112basic_stringIcSt11char_traitsIcESaIcEEESaISO_EE
FNDA:1,_ZN7testing8internal21TypeParameterizedTestIN12_GLOBAL__N_115PrimeTableTest2ENS0_11TemplateSelINS2_28gtest_suite_PrimeTableTest2_24ReturnsFalseForNonPrimesEEENS0_5TypesI18OnTheFlyPrimeTableJ23PreCalculatedPrimeTableEEEE8RegisterEPKcRKNS0_12CodeLocationESE_SE_iRKSt6vectorINSt7__cxx1112basic_stringIcSt11char_traitsIcESaIcEEESaISO_EE
FN:708,_ZN7testing8internal21TypeParameterizedTestIN12_GLOBAL__N_114PrimeTableTestENS0_11TemplateSelINS2_44PrimeTableTest_ReturnsFalseForNonPrimes_TestEEENS0_5TypesI18OnTheFlyPrimeTableJ23PreCalculatedPrimeTableEEEE8RegisterEPKcRKNS0_12CodeLocationESD_SD_iRKSt6vectorINSt7__cxx1112basic_stringIcSt11char_traitsIcESaIcEEESaISN_EE
FNDA:1,_ZN7testing8internal21TypeParameterizedTestIN12_GLOBAL__N_114PrimeTableTestENS0_11TemplateSelINS2_44PrimeTableTest_ReturnsFalseForNonPrimes_TestEEENS0_5TypesI18OnTheFlyPrimeTableJ23PreCalculatedPrimeTableEEEE8RegisterEPKcRKNS0_12CodeLocationESD_SD_iRKSt6vectorINSt7__cxx1112basic_stringIcSt11char_traitsIcESaIcEEESaISN_EE
FN:708,_ZN7testing8internal21TypeParameterizedTestIN12_GLOBAL__N_114PrimeTableTestENS0_11TemplateSelINS2_40PrimeTableTest_ReturnsTrueForPrimes_TestEEENS0_5TypesI18OnTheFlyPrimeTableJ23PreCalculatedPrimeTableEEEE8RegisterEPKcRKNS0_12CodeLocationESD_SD_iRKSt6vectorINSt7__cxx1112basic_stringIcSt11char_traitsIcESaIcEEESaISN_EE
FNDA:1,_ZN7testing8internal21TypeParameterizedTestIN12_GLOBAL__N_114PrimeTableTestENS0_11TemplateSelINS2_40PrimeTableTest_ReturnsTrueForPrimes_TestEEENS0_5TypesI18OnTheFlyPrimeTableJ23PreCalculatedPrimeTableEEEE8RegisterEPKcRKNS0_12CodeLocationESD_SD_iRKSt6vectorINSt7__cxx1112basic_stringIcSt11char_traitsIcESaIcEEESaISN_EE
FN:708,_ZN7testing8internal21TypeParameterizedTestIN12_GLOBAL__N_114PrimeTableTestENS0_11TemplateSelINS2_35PrimeTableTest_CanGetNextPrime_TestEEENS0_5TypesI18OnTheFlyPrimeTableJ23PreCalculatedPrimeTableEEEE8RegisterEPKcRKNS0_12CodeLocationESD_SD_iRKSt6vectorINSt7__cxx1112basic_stringIcSt11char_traitsIcESaIcEEESaISN_EE
FNDA:1,_ZN7testing8internal21TypeParameterizedTestIN12_GLOBAL__N_114PrimeTableTestENS0_11TemplateSelINS2_35PrimeTableTest_CanGetNextPrime_TestEEENS0_5TypesI18OnTheFlyPrimeTableJ23PreCalculatedPrimeTableEEEE8RegisterEPKcRKNS0_12CodeLocationESD_SD_iRKSt6vectorINSt7__cxx1112basic_stringIcSt11char_traitsIcESaIcEEESaISN_EE
FN:708,_ZN7testing8internal21TypeParameterizedTestIN12_GLOBAL__N_115PrimeTableTest2ENS0_11TemplateSelINS2_28gtest_suite_PrimeTableTest2_15CanGetNextPrimeEEENS0_5TypesI18OnTheFlyPrimeTableJ23PreCalculatedPrimeTableEEEE8RegisterEPKcRKNS0_12CodeLocationESE_SE_iRKSt6vectorINSt7__cxx1112basic_stringIcSt11char_traitsIcESaIcEEESaISO_EE
FNDA:1,_ZN7testing8internal21TypeParameterizedTestIN12_GLOBAL__N_115PrimeTableTest2ENS0_11TemplateSelINS2_28gtest_suite_PrimeTableTest2_15CanGetNextPrimeEEENS0_5TypesI18OnTheFlyPrimeTableJ23PreCalculatedPrimeTableEEEE8RegisterEPKcRKNS0_12CodeLocationESE_SE_iRKSt6vectorINSt7__cxx1112basic_stringIcSt11char_traitsIcESaIcEEESaISO_EE
FN:708,_ZN7testing8internal21TypeParameterizedTestIN12_GLOBAL__N_115PrimeTableTest2ENS0_11TemplateSelINS2_28gtest_suite_PrimeTableTest2_20ReturnsTrueForPrimesEEENS0_5TypesI23PreCalculatedPrimeTableJEEEE8RegisterEPKcRKNS0_12CodeLocationESD_SD_iRKSt6vectorINSt7__cxx1112basic_stringIcSt11char_traitsIcESaIcEEESaISN_EE
FNDA:1,_ZN7testing8internal21TypeParameterizedTestIN12_GLOBAL__N_115PrimeTableTest2ENS0_11TemplateSelINS2_28gtest_suite_PrimeTableTest2_20ReturnsTrueForPrimesEEENS0_5TypesI23PreCalculatedPrimeTableJEEEE8RegisterEPKcRKNS0_12CodeLocationESD_SD_iRKSt6vectorINSt7__cxx1112basic_stringIcSt11char_traitsIcESaIcEEESaISN_EE
FN:708,_ZN7testing8internal21TypeParameterizedTestIN12_GLOBAL__N_115PrimeTableTest2ENS0_11TemplateSelINS2_28gtest_suite_PrimeTableTest2_20ReturnsTrueForPrimesEEENS0_5TypesI18OnTheFlyPrimeTableJ23PreCalculatedPrimeTableEEEE8RegisterEPKcRKNS0_12CodeLocationESE_SE_iRKSt6vectorINSt7__cxx1112basic_stringIcSt11char_traitsIcESaIcEEESaISO_EE
FNDA:1,_ZN7testing8internal21TypeParameterizedTestIN12_GLOBAL__N_115PrimeTableTest2ENS0_11TemplateSelINS2_28gtest_suite_PrimeTableTest2_20ReturnsTrueForPrimesEEENS0_5TypesI18OnTheFlyPrimeTableJ23PreCalculatedPrimeTableEEEE8RegisterEPKcRKNS0_12CodeLocationESE_SE_iRKSt6vectorINSt7__cxx1112basic_stringIcSt11char_traitsIcESaIcEEESaISO_EE
FN:708,_ZN7testing8internal21TypeParameterizedTestIN12_GLOBAL__N_114PrimeTableTestENS0_11TemplateSelINS2_44PrimeTableTest_ReturnsFalseForNonPrimes_TestEEENS0_5TypesI23PreCalculatedPrimeTableJEEEE8RegisterEPKcRKNS0_12CodeLocationESC_SC_iRKSt6vectorINSt7__cxx1112basic_stringIcSt11char_traitsIcESaIcEEESaISM_EE
FNDA:1,_ZN7testing8internal21TypeParameterizedTestIN12_GLOBAL__N_114PrimeTableTestENS0_11TemplateSelINS2_44PrimeTableTest_ReturnsFalseForNonPrimes_TestEEENS0_5TypesI23PreCalculatedPrimeTableJEEEE8RegisterEPKcRKNS0_12CodeLocationESC_SC_iRKSt6vectorINSt7__cxx1112basic_stringIcSt11char_traitsIcESaIcEEESaISM_EE
FN:708,_ZN7testing8internal21TypeParameterizedTestIN12_GLOBAL__N_115PrimeTableTest2ENS0_11TemplateSelINS2_28gtest_suite_PrimeTableTest2_24ReturnsFalseForNonPrimesEEENS0_5TypesI23PreCalculatedPrimeTableJEEEE8RegisterEPKcRKNS0_12CodeLocationESD_SD_iRKSt6vectorINSt7__cxx1112basic_stringIcSt11char_traitsIcESaIcEEESaISN_EE
FNDA:1,_ZN7testing8internal21TypeParameterizedTestIN12_GLOBAL__N_115PrimeTableTest2ENS0_11TemplateSelINS2_28gtest_suite_PrimeTableTest2_24ReturnsFalseForNonPrimesEEENS0_5TypesI23PreCalculatedPrimeTableJEEEE8RegisterEPKcRKNS0_12CodeLocationESD_SD_iRKSt6vectorINSt7__cxx1112basic_stringIcSt11char_traitsIcESaIcEEESaISN_EE
FN:708,_ZN7testing8internal21TypeParameterizedTestIN12_GLOBAL__N_114PrimeTableTestENS0_11TemplateSelINS2_35PrimeTableTest_CanGetNextPrime_TestEEENS0_5TypesI23PreCalculatedPrimeTableJEEEE8RegisterEPKcRKNS0_12CodeLocationESC_SC_iRKSt6vectorINSt7__cxx1112basic_stringIcSt11char_traitsIcESaIcEEESaISM_EE
FNDA:1,_ZN7testing8internal21TypeParameterizedTestIN12_GLOBAL__N_114PrimeTableTestENS0_11TemplateSelINS2_35PrimeTableTest_CanGetNextPrime_TestEEENS0_5TypesI23PreCalculatedPrimeTableJEEEE8RegisterEPKcRKNS0_12CodeLocationESC_SC_iRKSt6vectorINSt7__cxx1112basic_stringIcSt11char_traitsIcESaIcEEESaISM_EE
FN:747,_ZN7testing8internal21TypeParameterizedTestIN12_GLOBAL__N_115PrimeTableTest2ENS0_11TemplateSelINS2_28gtest_suite_PrimeTableTest2_20ReturnsTrueForPrimesEEENS0_4NoneEE8RegisterEPKcRKNS0_12CodeLocationESB_SB_iRKSt6vectorINSt7__cxx1112basic_stringIcSt11char_traitsIcESaIcEEESaISL_EE
FNDA:1,_ZN7testing8internal21TypeParameterizedTestIN12_GLOBAL__N_115PrimeTableTest2ENS0_11TemplateSelINS2_28gtest_suite_PrimeTableTest2_20ReturnsTrueForPrimesEEENS0_4NoneEE8RegisterEPKcRKNS0_12CodeLocationESB_SB_iRKSt6vectorINSt7__cxx1112basic_stringIcSt11char_traitsIcESaIcEEESaISL_EE
FN:747,_ZN7testing8internal21TypeParameterizedTestIN12_GLOBAL__N_114PrimeTableTestENS0_11TemplateSelINS2_44PrimeTableTest_ReturnsFalseForNonPrimes_TestEEENS0_4NoneEE8RegisterEPKcRKNS0_12CodeLocationESA_SA_iRKSt6vectorINSt7__cxx1112basic_stringIcSt11char_traitsIcESaIcEEESaISK_EE
FNDA:1,_ZN7testing8internal21TypeParameterizedTestIN12_GLOBAL__N_114PrimeTableTestENS0_11TemplateSelINS2_44PrimeTableTest_ReturnsFalseForNonPrimes_TestEEENS0_4NoneEE8RegisterEPKcRKNS0_12CodeLocationESA_SA_iRKSt6vectorINSt7__cxx1112basic_stringIcSt11char_traitsIcESaIcEEESaISK_EE
FN:747,_ZN7testing8internal21TypeParameterizedTestIN12_GLOBAL__N_114PrimeTableTestENS0_11TemplateSelINS2_35PrimeTableTest_CanGetNextPrime_TestEEENS0_4NoneEE8RegisterEPKcRKNS0_12CodeLocationESA_SA_iRKSt6vectorINSt7__cxx1112basic_stringIcSt11char_traitsIcESaIcEEESaISK_EE
FNDA:1,_ZN7testing8internal21TypeParameterizedTestIN12_GLOBAL__N_114PrimeTableTestENS0_11TemplateSelINS2_35PrimeTableTest_CanGetNextPrime_TestEEENS0_4NoneEE8RegisterEPKcRKNS0_12CodeLocationESA_SA_iRKSt6vectorINSt7__cxx1112basic_stringIcSt11char_traitsIcESaIcEEESaISK_EE
FN:747,_ZN7testing8internal21TypeParameterizedTestIN12_GLOBAL__N_115PrimeTableTest2ENS0_11TemplateSelINS2_28gtest_suite_PrimeTableTest2_24ReturnsFalseForNonPrimesEEENS0_4NoneEE8RegisterEPKcRKNS0_12CodeLocationESB_SB_iRKSt6vectorINSt7__cxx1112basic_stringIcSt11char_traitsIcESaIcEEESaISL_EE
FNDA:1,_ZN7testing8internal21TypeParameterizedTestIN12_GLOBAL__N_115PrimeTableTest2ENS0_11TemplateSelINS2_28gtest_suite_PrimeTableTest2_24ReturnsFalseForNonPrimesEEENS0_4NoneEE8RegisterEPKcRKNS0_12CodeLocationESB_SB_iRKSt6vectorINSt7__cxx1112basic_stringIcSt11char_traitsIcESaIcEEESaISL_EE
FN:747,_ZN7testing8internal21TypeParameterizedTestIN12_GLOBAL__N_115PrimeTableTest2ENS0_11TemplateSelINS2_28gtest_suite_PrimeTableTest2_15CanGetNextPrimeEEENS0_4NoneEE8RegisterEPKcRKNS0_12CodeLocationESB_SB_iRKSt6vectorINSt7__cxx1112basic_stringIcSt11char_traitsIcESaIcEEESaISL_EE
FNDA:1,_ZN7testing8internal21TypeParameterizedTestIN12_GLOBAL__N_115PrimeTableTest2ENS0_11TemplateSelINS2_28gtest_suite_PrimeTableTest2_15CanGetNextPrimeEEENS0_4NoneEE8RegisterEPKcRKNS0_12CodeLocationESB_SB_iRKSt6vectorINSt7__cxx1112basic_stringIcSt11char_traitsIcESaIcEEESaISL_EE
FN:747,_ZN7testing8internal21TypeParameterizedTestIN12_GLOBAL__N_114PrimeTableTestENS0_11TemplateSelINS2_40PrimeTableTest_ReturnsTrueForPrimes_TestEEENS0_4NoneEE8RegisterEPKcRKNS0_12CodeLocationESA_SA_iRKSt6vectorINSt7__cxx1112basic_stringIcSt11char_traitsIcESaIcEEESaISK_EE
FNDA:1,_ZN7testing8internal21TypeParameterizedTestIN12_GLOBAL__N_114PrimeTableTestENS0_11TemplateSelINS2_40PrimeTableTest_ReturnsTrueForPrimes_TestEEENS0_4NoneEE8RegisterEPKcRKNS0_12CodeLocationESA_SA_iRKSt6vectorINSt7__cxx1112basic_stringIcSt11char_traitsIcESaIcEEESaISK_EE
FN:768,_ZN7testing8internal26TypeParameterizedTestSuiteIN12_GLOBAL__N_115PrimeTableTest2ENS0_9TemplatesINS2_28gtest_suite_PrimeTableTest2_24ReturnsFalseForNonPrimesEJNS5_20ReturnsTrueForPrimesENS5_15CanGetNextPrimeEEEENS0_5TypesI18OnTheFlyPrimeTableJ23PreCalculatedPrimeTableEEEE8RegisterEPKcNS0_12CodeLocationEPKNS0_20TypedTestSuitePStateESG_SG_RKSt6vectorINSt7__cxx1112basic_stringIcSt11char_traitsIcESaIcEEESaISR_EE
FNDA:1,_ZN7testing8internal26TypeParameterizedTestSuiteIN12_GLOBAL__N_115PrimeTableTest2ENS0_9TemplatesINS2_28gtest_suite_PrimeTableTest2_24ReturnsFalseForNonPrimesEJNS5_20ReturnsTrueForPrimesENS5_15CanGetNextPrimeEEEENS0_5TypesI18OnTheFlyPrimeTableJ23PreCalculatedPrimeTableEEEE8RegisterEPKcNS0_12CodeLocationEPKNS0_20TypedTestSuitePStateESG_SG_RKSt6vectorINSt7__cxx1112basic_stringIcSt11char_traitsIcESaIcEEESaISR_EE
FN:768,_ZN7testing8internal26TypeParameterizedTestSuiteIN12_GLOBAL__N_115PrimeTableTest2ENS0_9TemplatesINS2_28gtest_suite_PrimeTableTest2_20ReturnsTrueForPrimesEJNS5_15CanGetNextPrimeEEEENS0_5TypesI18OnTheFlyPrimeTableJ23PreCalculatedPrimeTableEEEE8RegisterEPKcNS0_12CodeLocationEPKNS0_20TypedTestSuitePStateESF_SF_RKSt6vectorINSt7__cxx1112basic_stringIcSt11char_traitsIcESaIcEEESaISQ_EE
FNDA:1,_ZN7testing8internal26TypeParameterizedTestSuiteIN12_GLOBAL__N_115PrimeTableTest2ENS0_9TemplatesINS2_28gtest_suite_PrimeTableTest2_20ReturnsTrueForPrimesEJNS5_15CanGetNextPrimeEEEENS0_5TypesI18OnTheFlyPrimeTableJ23PreCalculatedPrimeTableEEEE8RegisterEPKcNS0_12CodeLocationEPKNS0_20TypedTestSuitePStateESF_SF_RKSt6vectorINSt7__cxx1112basic_stringIcSt11char_traitsIcESaIcEEESaISQ_EE
FN:768,_ZN7testing8internal26TypeParameterizedTestSuiteIN12_GLOBAL__N_115PrimeTableTest2ENS0_9TemplatesINS2_28gtest_suite_PrimeTableTest2_15CanGetNextPrimeEJEEENS0_5TypesI18OnTheFlyPrimeTableJ23PreCalculatedPrimeTableEEEE8RegisterEPKcNS0_12CodeLocationEPKNS0_20TypedTestSuitePStateESE_SE_RKSt6vectorINSt7__cxx1112basic_stringIcSt11char_traitsIcESaIcEEESaISP_EE
FNDA:1,_ZN7testing8internal26TypeParameterizedTestSuiteIN12_GLOBAL__N_115PrimeTableTest2ENS0_9TemplatesINS2_28gtest_suite_PrimeTableTest2_15CanGetNextPrimeEJEEENS0_5TypesI18OnTheFlyPrimeTableJ23PreCalculatedPrimeTableEEEE8RegisterEPKcNS0_12CodeLocationEPKNS0_20TypedTestSuitePStateESE_SE_RKSt6vectorINSt7__cxx1112basic_stringIcSt11char_traitsIcESaIcEEESaISP_EE
FN:805,_ZN7testing8internal26TypeParameterizedTestSuiteIN12_GLOBAL__N_115PrimeTableTest2ENS0_4NoneENS0_5TypesI18OnTheFlyPrimeTableJ23PreCalculatedPrimeTableEEEE8RegisterEPKcRKNS0_12CodeLocationEPKNS0_20TypedTestSuitePStateESB_SB_RKSt6vectorINSt7__cxx1112basic_stringIcSt11char_traitsIcESaIcEEESaISO_EE
FNDA:1,_ZN7testing8internal26TypeParameterizedTestSuiteIN12_GLOBAL__N_115PrimeTableTest2ENS0_4NoneENS0_5TypesI18OnTheFlyPrimeTableJ23PreCalculatedPrimeTableEEEE8RegisterEPKcRKNS0_12CodeLocationEPKNS0_20TypedTestSuitePStateESB_SB_RKSt6vectorINSt7__cxx1112basic_stringIcSt11char_traitsIcESaIcEEESaISO_EE
DA:435,3
DA:440,3
DA:435,3
DA:440,3
DA:435,3
DA:440,3
DA:435,3
DA:440,3
DA:454,0
DA:454,12
DA:461,12
DA:472,1
BRDA:472,0,0,1
BRDA:472,0,1,0
DA:472,1
BRDA:472,0,0,1
BRDA:472,0,1,0
DA:472,1
BRDA:472,0,0,1
BRDA:472,0,1,0
DA:472,1
BRDA:472,0,0,1
BRDA:472,0,1,0
DA:472,1
BRDA:472,0,0,1
BRDA:472,0,1,0
DA:472,1
BRDA:472,0,0,1
BRDA:472,0,1,0
DA:472,1
BRDA:472,0,0,1
BRDA:472,0,1,0
DA:472,1
BRDA:472,0,0,1
BRDA:472,0,1,0
DA:472,1
BRDA:472,0,0,1
BRDA:472,0,1,0
DA:472,1
BRDA:472,0,0,1
BRDA:472,0,1,0
DA:472,1
BRDA:472,0,0,1
BRDA:472,0,1,0
DA:472,1
BRDA:472,0,0,1
BRDA:472,0,1,0
DA:493,8
DA:494,8
DA:506,48
DA:508,48
BRDA:508,0,0,0
BRDA:508,0,1,48
DA:521,1
DA:524,1
DA:526,1
DA:528,1
BRDA:528,0,0,0
BRDA:528,0,1,1
BRDA:528,0,2,0
BRDA:528,0,3,0
BRDA:528,0,4,0
BRDA:528,0,5,1
DA:531,0
BRDA:531,0,0,-
BRDA:531,0,1,-
BRDA:531,0,2,-
BRDA:531,0,3,-
BRDA:531,0,4,-
BRDA:531,0,5,-
BRDA:531,0,6,-
BRDA:531,0,7,-
BRDA:531,0,8,-
BRDA:531,0,9,-
DA:533,1
BRDA:533,0,0,0
BRDA:533,0,1,1
DA:521,1
DA:524,1
DA:526,1
DA:528,1
BRDA:528,0,0,0
BRDA:528,0,1,1
BRDA:528,0,2,0
BRDA:528,0,3,0
BRDA:528,0,4,0
BRDA:528,0,5,1
DA:531,0
BRDA:531,0,0,-
BRDA:531,0,1,-
BRDA:531,0,2,-
BRDA:531,0,3,-
BRDA:531,0,4,-
BRDA:531,0,5,-
BRDA:531,0,6,-
BRDA:531,0,7,-
BRDA:531,0,8,-
BRDA:531,0,9,-
DA:533,1
BRDA:533,0,0,0
BRDA:533,0,1,1
DA:521,1
DA:524,1
DA:526,1
DA:528,1
BRDA:528,0,0,0
BRDA:528,0,1,1
BRDA:528,0,2,0
BRDA:528,0,3,0
BRDA:528,0,4,0
BRDA:528,0,5,1
DA:531,0
BRDA:531,0,0,-
BRDA:531,0,1,-
BRDA:531,0,2,-
BRDA:531,0,3,-
BRDA:531,0,4,-
BRDA:531,0,5,-
BRDA:531,0,6,-
BRDA:531,0,7,-
BRDA:531,0,8,-
BRDA:531,0,9,-
DA:533,1
BRDA:533,0,0,0
BRDA:533,0,1,1
DA:521,1
DA:524,1
DA:526,1
DA:528,1
BRDA:528,0,0,0
BRDA:528,0,1,1
BRDA:528,0,2,0
BRDA:528,0,3,0
BRDA:528,0,4,0
BRDA:528,0,5,1
DA:531,0
BRDA:531,0,0,-
BRDA:531,0,1,-
BRDA:531,0,2,-
BRDA:531,0,3,-
BRDA:531,0,4,-
BRDA:531,0,5,-
BRDA:531,0,6,-
BRDA:531,0,7,-
BRDA:531,0,8,-
BRDA:531,0,9,-
DA:533,1
BRDA:533,0,0,0
BRDA:533,0,1,1
DA:521,1
DA:524,1
DA:526,1
DA:528,1
BRDA:528,0,0,0
BRDA:528,0,1,1
BRDA:528,0,2,0
BRDA:528,0,3,0
BRDA:528,0,4,0
BRDA:528,0,5,1
DA:531,0
BRDA:531,0,0,-
BRDA:531,0,1,-
BRDA:531,0,2,-
BRDA:531,0,3,-
BRDA:531,0,4,-
BRDA:531,0,5,-
BRDA:531,0,6,-
BRDA:531,0,7,-
BRDA:531,0,8,-
BRDA:531,0,9,-
DA:533,1
BRDA:533,0,0,0
BRDA:533,0,1,1
DA:521,1
DA:524,1
DA:526,1
DA:528,1
BRDA:528,0,0,0
BRDA:528,0,1,1
BRDA:528,0,2,0
BRDA:528,0,3,0
BRDA:528,0,4,0
BRDA:528,0,5,1
DA:531,0
BRDA:531,0,0,-
BRDA:531,0,1,-
BRDA:531,0,2,-
BRDA:531,0,3,-
BRDA:531,0,4,-
BRDA:531,0,5,-
BRDA:531,0,6,-
BRDA:531,0,7,-
BRDA:531,0,8,-
BRDA:531,0,9,-
DA:533,1
BRDA:533,0,0,0
BRDA:533,0,1,1
DA:521,1
DA:524,1
DA:526,1
DA:528,1
BRDA:528,0,0,0
BRDA:528,0,1,1
BRDA:528,0,2,0
BRDA:528,0,3,0
BRDA:528,0,4,0
BRDA:528,0,5,1
DA:531,0
BRDA:531,0,0,-
BRDA:531,0,1,-
BRDA:531,0,2,-
BRDA:531,0,3,-
BRDA:531,0,4,-
BRDA:531,0,5,-
BRDA:531,0,6,-
BRDA:531,0,7,-
BRDA:531,0,8,-
BRDA:531,0,9,-
DA:533,1
BRDA:533,0,0,0
BRDA:533,0,1,1
DA:521,1
DA:524,1
DA:526,1
DA:528,1
BRDA:528,0,0,0
BRDA:528,0,1,1
BRDA:528,0,2,0
BRDA:528,0,3,0
BRDA:528,0,4,0
BRDA:528,0,5,1
DA:531,0
BRDA:531,0,0,-
BRDA:531,0,1,-
BRDA:531,0,2,-
BRDA:531,0,3,-
BRDA:531,0,4,-
BRDA:531,0,5,-
BRDA:531,0,6,-
BRDA:531,0,7,-
BRDA:531,0,8,-
BRDA:531,0,9,-
DA:533,1
BRDA:533,0,0,0
BRDA:533,0,1,1
DA:521,1
DA:524,1
DA:526,1
DA:528,1
BRDA:528,0,0,0
BRDA:528,0,1,1
BRDA:528,0,2,0
BRDA:528,0,3,0
BRDA:528,0,4,0
BRDA:528,0,5,1
DA:531,0
BRDA:531,0,0,-
BRDA:531,0,1,-
BRDA:531,0,2,-
BRDA:531,0,3,-
BRDA:531,0,4,-
BRDA:531,0,5,-
BRDA:531,0,6,-
BRDA:531,0,7,-
BRDA:531,0,8,-
BRDA:531,0,9,-
DA:533,1
BRDA:533,0,0,0
BRDA:533,0,1,1
DA:521,1
DA:524,1
DA:526,1
DA:528,1
BRDA:528,0,0,0
BRDA:528,0,1,1
BRDA:528,0,2,0
BRDA:528,0,3,0
BRDA:528,0,4,0
BRDA:528,0,5,1
DA:531,0
BRDA:531,0,0,-
BRDA:531,0,1,-
BRDA:531,0,2,-
BRDA:531,0,3,-
BRDA:531,0,4,-
BRDA:531,0,5,-
BRDA:531,0,6,-
BRDA:531,0,7,-
BRDA:531,0,8,-
BRDA:531,0,9,-
DA:533,1
BRDA:533,0,0,0
BRDA:533,0,1,1
DA:521,1
DA:524,1
DA:526,1
DA:528,1
BRDA:528,0,0,0
BRDA:528,0,1,1
BRDA:528,0,2,0
BRDA:528,0,3,0
BRDA:528,0,4,0
BRDA:528,0,5,1
DA:531,0
BRDA:531,0,0,-
BRDA:531,0,1,-
BRDA:531,0,2,-
BRDA:531,0,3,-
BRDA:531,0,4,-
BRDA:531,0,5,-
BRDA:531,0,6,-
BRDA:531,0,7,-
BRDA:531,0,8,-
BRDA:531,0,9,-
DA:533,1
BRDA:533,0,0,0
BRDA:533,0,1,1
DA:521,1
DA:524,1
DA:526,1
DA:528,1
BRDA:528,0,0,0
BRDA:528,0,1,1
BRDA:528,0,2,0
BRDA:528,0,3,0
BRDA:528,0,4,0
BRDA:528,0,5,1
DA:531,0
BRDA:531,0,0,-
BRDA:531,0,1,-
BRDA:531,0,2,-
BRDA:531,0,3,-
BRDA:531,0,4,-
BRDA:531,0,5,-
BRDA:531,0,6,-
BRDA:531,0,7,-
BRDA:531,0,8,-
BRDA:531,0,9,-
DA:533,1
BRDA:533,0,0,0
BRDA:533,0,1,1
DA:536,1
DA:539,1
DA:541,1
DA:543,1
BRDA:543,0,0,0
BRDA:543,0,1,1
BRDA:543,0,2,0
BRDA:543,0,3,0
BRDA:543,0,4,0
BRDA:543,0,5,1
DA:546,0
BRDA:546,0,0,-
BRDA:546,0,1,-
BRDA:546,0,2,-
BRDA:546,0,3,-
BRDA:546,0,4,-
BRDA:546,0,5,-
BRDA:546,0,6,-
BRDA:546,0,7,-
BRDA:546,0,8,-
BRDA:546,0,9,-
DA:548,1
BRDA:548,0,0,0
BRDA:548,0,1,1
DA:536,1
DA:539,1
DA:541,1
DA:543,1
BRDA:543,0,0,0
BRDA:543,0,1,1
BRDA:543,0,2,0
BRDA:543,0,3,0
BRDA:543,0,4,0
BRDA:543,0,5,1
DA:546,0
BRDA:546,0,0,-
BRDA:546,0,1,-
BRDA:546,0,2,-
BRDA:546,0,3,-
BRDA:546,0,4,-
BRDA:546,0,5,-
BRDA:546,0,6,-
BRDA:546,0,7,-
BRDA:546,0,8,-
BRDA:546,0,9,-
DA:548,1
BRDA:548,0,0,0
BRDA:548,0,1,1
DA:536,1
DA:539,1
DA:541,1
DA:543,1
BRDA:543,0,0,0
BRDA:543,0,1,1
BRDA:543,0,2,0
BRDA:543,0,3,0
BRDA:543,0,4,0
BRDA:543,0,5,1
DA:546,0
BRDA:546,0,0,-
BRDA:546,0,1,-
BRDA:546,0,2,-
BRDA:546,0,3,-
BRDA:546,0,4,-
BRDA:546,0,5,-
BRDA:546,0,6,-
BRDA:546,0,7,-
BRDA:546,0,8,-
BRDA:546,0,9,-
DA:548,1
BRDA:548,0,0,0
BRDA:548,0,1,1
DA:536,1
DA:539,1
DA:541,1
DA:543,1
BRDA:543,0,0,0
BRDA:543,0,1,1
BRDA:543,0,2,0
BRDA:543,0,3,0
BRDA:543,0,4,0
BRDA:543,0,5,1
DA:546,0
BRDA:546,0,0,-
BRDA:546,0,1,-
BRDA:546,0,2,-
BRDA:546,0,3,-
BRDA:546,0,4,-
BRDA:546,0,5,-
BRDA:546,0,6,-
BRDA:546,0,7,-
BRDA:546,0,8,-
BRDA:546,0,9,-
DA:548,1
BRDA:548,0,0,0
BRDA:548,0,1,1
DA:536,1
DA:539,1
DA:541,1
DA:543,1
BRDA:543,0,0,0
BRDA:543,0,1,1
BRDA:543,0,2,0
BRDA:543,0,3,0
BRDA:543,0,4,0
BRDA:543,0,5,1
DA:546,0
BRDA:546,0,0,-
BRDA:546,0,1,-
BRDA:546,0,2,-
BRDA:546,0,3,-
BRDA:546,0,4,-
BRDA:546,0,5,-
BRDA:546,0,6,-
BRDA:546,0,7,-
BRDA:546,0,8,-
BRDA:546,0,9,-
DA:548,1
BRDA:548,0,0,0
BRDA:548,0,1,1
DA:536,1
DA:539,1
DA:541,1
DA:543,1
BRDA:543,0,0,0
BRDA:543,0,1,1
BRDA:543,0,2,0
BRDA:543,0,3,0
BRDA:543,0,4,0
BRDA:543,0,5,1
DA:546,0
BRDA:546,0,0,-
BRDA:546,0,1,-
BRDA:546,0,2,-
BRDA:546,0,3,-
BRDA:546,0,4,-
BRDA:546,0,5,-
BRDA:546,0,6,-
BRDA:546,0,7,-
BRDA:546,0,8,-
BRDA:546,0,9,-
DA:548,1
BRDA:548,0,0,0
BRDA:548,0,1,1
DA:536,1
DA:539,1
DA:541,1
DA:543,1
BRDA:543,0,0,0
BRDA:543,0,1,1
BRDA:543,0,2,0
BRDA:543,0,3,0
BRDA:543,0,4,0
BRDA:543,0,5,1
DA:546,0
BRDA:546,0,0,-
BRDA:546,0,1,-
BRDA:546,0,2,-
BRDA:546,0,3,-
BRDA:546,0,4,-
BRDA:546,0,5,-
BRDA:546,0,6,-
BRDA:546,0,7,-
BRDA:546,0,8,-
BRDA:546,0,9,-
DA:548,1
BRDA:548,0,0,0
BRDA:548,0,1,1
DA:536,1
DA:539,1
DA:541,1
DA:543,1
BRDA:543,0,0,0
BRDA:543,0,1,1
BRDA:543,0,2,0
BRDA:543,0,3,0
BRDA:543,0,4,0
BRDA:543,0,5,1
DA:546,0
BRDA:546,0,0,-
BRDA:546,0,1,-
BRDA:546,0,2,-
BRDA:546,0,3,-
BRDA:546,0,4,-
BRDA:546,0,5,-
BRDA:546,0,6,-
BRDA:546,0,7,-
BRDA:546,0,8,-
BRDA:546,0,9,-
DA:548,1
BRDA:548,0,0,0
BRDA:548,0,1,1
DA:536,1
DA:539,1
DA:541,1
DA:543,1
BRDA:543,0,0,0
BRDA:543,0,1,1
BRDA:543,0,2,0
BRDA:543,0,3,0
BRDA:543,0,4,0
BRDA:543,0,5,1
DA:546,0
BRDA:546,0,0,-
BRDA:546,0,1,-
BRDA:546,0,2,-
BRDA:546,0,3,-
BRDA:546,0,4,-
BRDA:546,0,5,-
BRDA:546,0,6,-
BRDA:546,0,7,-
BRDA:546,0,8,-
BRDA:546,0,9,-
DA:548,1
BRDA:548,0,0,0
BRDA:548,0,1,1
DA:536,1
DA:539,1
DA:541,1
DA:543,1
BRDA:543,0,0,0
BRDA:543,0,1,1
BRDA:543,0,2,0
BRDA:543,0,3,0
BRDA:543,0,4,0
BRDA:543,0,5,1
DA:546,0
BRDA:546,0,0,-
BRDA:546,0,1,-
BRDA:546,0,2,-
BRDA:546,0,3,-
BRDA:546,0,4,-
BRDA:546,0,5,-
BRDA:546,0,6,-
BRDA:546,0,7,-
BRDA:546,0,8,-
BRDA:546,0,9,-
DA:548,1
BRDA:548,0,0,0
BRDA:548,0,1,1
DA:536,1
DA:539,1
DA:541,1
DA:543,1
BRDA:543,0,0,0
BRDA:543,0,1,1
BRDA:543,0,2,0
BRDA:543,0,3,0
BRDA:543,0,4,0
BRDA:543,0,5,1
DA:546,0
BRDA:546,0,0,-
BRDA:546,0,1,-
BRDA:546,0,2,-
BRDA:546,0,3,-
BRDA:546,0,4,-
BRDA:546,0,5,-
BRDA:546,0,6,-
BRDA:546,0,7,-
BRDA:546,0,8,-
BRDA:546,0,9,-
DA:548,1
BRDA:548,0,0,0
BRDA:548,0,1,1
DA:536,1
DA:539,1
DA:541,1
DA:543,1
BRDA:543,0,0,0
BRDA:543,0,1,1
BRDA:543,0,2,0
BRDA:543,0,3,0
BRDA:543,0,4,0
BRDA:543,0,5,1
DA:546,0
BRDA:546,0,0,-
BRDA:546,0,1,-
BRDA:546,0,2,-
BRDA:546,0,3,-
BRDA:546,0,4,-
BRDA:546,0,5,-
BRDA:546,0,6,-
BRDA:546,0,7,-
BRDA:546,0,8,-
BRDA:546,0,9,-
DA:548,1
BRDA:548,0,0,0
BRDA:548,0,1,1
DA:589,1
DA:594,3
DA:596,3
BRDA:596,0,0,0
BRDA:596,0,1,3
DA:597,0
BRDA:597,0,0,-
BRDA:597,0,1,-
DA:600,0
DA:601,0
DA:602,0
DA:605,3
BRDA:605,0,0,3
BRDA:605,0,1,0
BRDA:605,0,2,3
BRDA:605,0,3,0
BRDA:605,0,4,3
BRDA:605,0,5,0
BRDA:605,0,6,3
BRDA:605,0,7,0
DA:606,3
DA:609,3
DA:610,3
DA:613,3
DA:614,3
BRDA:614,0,0,3
BRDA:614,0,1,0
DA:615,3
BRDA:615,0,0,3
BRDA:615,0,1,0
BRDA:615,0,2,0
BRDA:615,0,3,3
BRDA:615,0,4,0
BRDA:615,0,5,0
BRDA:615,0,6,0
BRDA:615,0,7,0
DA:616,3
DA:642,6
DA:643,6
DA:644,6
BRDA:644,0,0,2
BRDA:644,0,1,4
DA:645,2
DA:647,8
BRDA:647,0,0,4
BRDA:647,0,1,4
DA:648,4
DA:653,18
DA:654,18
DA:655,18
BRDA:655,0,0,10
BRDA:655,0,1,8
BRDA:655,0,2,10
BRDA:655,0,3,0
BRDA:655,0,4,8
BRDA:655,0,5,0
BRDA:655,0,6,8
BRDA:655,0,7,10
BRDA:655,0,8,10
BRDA:655,0,9,8
BRDA:655,0,10,0
BRDA:655,0,11,0
BRDA:655,0,12,0
BRDA:655,0,13,0
DA:667,4
DA:668,4
DA:667,4
DA:668,4
DA:678,4
DA:681,4
DA:682,4
BRDA:682,0,0,4
BRDA:682,0,1,0
DA:683,4
DA:685,4
DA:681,4
DA:682,4
BRDA:682,0,0,4
BRDA:682,0,1,0
DA:683,4
BRDA:683,0,0,4
BRDA:683,0,1,0
DA:685,4
DA:688,4
DA:689,4
DA:690,4
BRDA:690,0,0,4
BRDA:690,0,1,0
DA:691,4
DA:708,1
DA:718,3
BRDA:718,0,0,1
BRDA:718,0,1,0
BRDA:718,0,2,1
BRDA:718,0,3,0
BRDA:718,0,4,1
BRDA:718,0,5,0
BRDA:718,0,6,1
BRDA:718,0,7,0
BRDA:718,0,8,1
BRDA:718,0,9,0
BRDA:718,0,10,1
BRDA:718,0,11,0
BRDA:718,0,12,1
BRDA:718,0,13,0
BRDA:718,0,14,1
BRDA:718,0,15,0
BRDA:718,0,16,1
BRDA:718,0,17,0
DA:719,1
BRDA:719,0,0,0
BRDA:719,0,1,1
DA:720,1
DA:727,1
DA:729,1
DA:730,1
DA:734,1
DA:739,1
DA:708,1
DA:718,3
BRDA:718,0,0,1
BRDA:718,0,1,0
BRDA:718,0,2,1
BRDA:718,0,3,0
BRDA:718,0,4,1
BRDA:718,0,5,0
BRDA:718,0,6,1
BRDA:718,0,7,0
BRDA:718,0,8,1
BRDA:718,0,9,0
BRDA:718,0,10,1
BRDA:718,0,11,0
BRDA:718,0,12,1
BRDA:718,0,13,0
BRDA:718,0,14,1
BRDA:718,0,15,0
BRDA:718,0,16,1
BRDA:718,0,17,0
DA:719,1
BRDA:719,0,0,0
BRDA:719,0,1,1
DA:720,1
DA:727,1
DA:729,1
DA:730,1
DA:734,1
DA:739,1
DA:708,1
DA:718,3
BRDA:718,0,0,1
BRDA:718,0,1,0
BRDA:718,0,2,1
BRDA:718,0,3,0
BRDA:718,0,4,1
BRDA:718,0,5,0
BRDA:718,0,6,1
BRDA:718,0,7,0
BRDA:718,0,8,1
BRDA:718,0,9,0
BRDA:718,0,10,1
BRDA:718,0,11,0
BRDA:718,0,12,1
BRDA:718,0,13,0
BRDA:718,0,14,1
BRDA:718,0,15,0
BRDA:718,0,16,1
BRDA:718,0,17,0
DA:719,1
BRDA:719,0,0,0
BRDA:719,0,1,1
DA:720,1
DA:727,1
DA:729,1
DA:730,1
DA:734,1
DA:739,1
DA:708,1
DA:718,3
BRDA:718,0,0,1
BRDA:718,0,1,0
BRDA:718,0,2,1
BRDA:718,0,3,0
BRDA:718,0,4,1
BRDA:718,0,5,0
BRDA:718,0,6,1
BRDA:718,0,7,0
BRDA:718,0,8,1
BRDA:718,0,9,0
BRDA:718,0,10,1
BRDA:718,0,11,0
BRDA:718,0,12,1
BRDA:718,0,13,0
BRDA:718,0,14,1
BRDA:718,0,15,0
BRDA:718,0,16,1
BRDA:718,0,17,0
DA:719,1
BRDA:719,0,0,0
BRDA:719,0,1,1
DA:720,1
DA:727,1
DA:729,1
DA:730,1
DA:734,1
DA:739,1
DA:708,1
DA:718,3
BRDA:718,0,0,1
BRDA:718,0,1,0
BRDA:718,0,2,1
BRDA:718,0,3,0
BRDA:718,0,4,1
BRDA:718,0,5,0
BRDA:718,0,6,1
BRDA:718,0,7,0
BRDA:718,0,8,1
BRDA:718,0,9,0
BRDA:718,0,10,1
BRDA:718,0,11,0
BRDA:718,0,12,1
BRDA:718,0,13,0
BRDA:718,0,14,1
BRDA:718,0,15,0
BRDA:718,0,16,1
BRDA:718,0,17,0
DA:719,1
BRDA:719,0,0,0
BRDA:719,0,1,1
DA:720,1
DA:727,1
DA:729,1
DA:730,1
DA:734,1
DA:739,1
DA:708,1
DA:718,3
BRDA:718,0,0,1
BRDA:718,0,1,0
BRDA:718,0,2,1
BRDA:718,0,3,0
BRDA:718,0,4,1
BRDA:718,0,5,0
BRDA:718,0,6,1
BRDA:718,0,7,0
BRDA:718,0,8,1
BRDA:718,0,9,0
BRDA:718,0,10,1
BRDA:718,0,11,0
BRDA:718,0,12,1
BRDA:718,0,13,0
BRDA:718,0,14,1
BRDA:718,0,15,0
BRDA:718,0,16,1
BRDA:718,0,17,0
DA:719,1
BRDA:719,0,0,0
BRDA:719,0,1,1
DA:720,1
DA:727,1
DA:729,1
DA:730,1
DA:734,1
DA:739,1
DA:708,1
DA:718,3
BRDA:718,0,0,1
BRDA:718,0,1,0
BRDA:718,0,2,1
BRDA:718,0,3,0
BRDA:718,0,4,1
BRDA:718,0,5,0
BRDA:718,0,6,1
BRDA:718,0,7,0
BRDA:718,0,8,1
BRDA:718,0,9,0
BRDA:718,0,10,1
BRDA:718,0,11,0
BRDA:718,0,12,1
BRDA:718,0,13,0
BRDA:718,0,14,1
BRDA:718,0,15,0
BRDA:718,0,16,1
BRDA:718,0,17,0
DA:719,1
BRDA:719,0,0,1
BRDA:719,0,1,0
DA:720,1
DA:727,1
DA:729,1
DA:730,1
DA:734,1
DA:739,1
DA:708,1
DA:718,3
BRDA:718,0,0,1
BRDA:718,0,1,0
BRDA:718,0,2,1
BRDA:718,0,3,0
BRDA:718,0,4,1
BRDA:718,0,5,0
BRDA:718,0,6,1
BRDA:718,0,7,0
BRDA:718,0,8,1
BRDA:718,0,9,0
BRDA:718,0,10,1
BRDA:718,0,11,0
BRDA:718,0,12,1
BRDA:718,0,13,0
BRDA:718,0,14,1
BRDA:718,0,15,0
BRDA:718,0,16,1
BRDA:718,0,17,0
DA:719,1
BRDA:719,0,0,1
BRDA:719,0,1,0
DA:720,1
DA:727,1
DA:729,1
DA:730,1
DA:734,1
DA:739,1
DA:708,1
DA:718,3
BRDA:718,0,0,1
BRDA:718,0,1,0
BRDA:718,0,2,1
BRDA:718,0,3,0
BRDA:718,0,4,1
BRDA:718,0,5,0
BRDA:718,0,6,1
BRDA:718,0,7,0
BRDA:718,0,8,1
BRDA:718,0,9,0
BRDA:718,0,10,1
BRDA:718,0,11,0
BRDA:718,0,12,1
BRDA:718,0,13,0
BRDA:718,0,14,1
BRDA:718,0,15,0
BRDA:718,0,16,1
BRDA:718,0,17,0
DA:719,1
BRDA:719,0,0,1
BRDA:719,0,1,0
DA:720,1
DA:727,1
DA:729,1
DA:730,1
DA:734,1
DA:739,1
DA:708,1
DA:718,3
BRDA:718,0,0,1
BRDA:718,0,1,0
BRDA:718,0,2,1
BRDA:718,0,3,0
BRDA:718,0,4,1
BRDA:718,0,5,0
BRDA:718,0,6,1
BRDA:718,0,7,0
BRDA:718,0,8,1
BRDA:718,0,9,0
BRDA:718,0,10,1
BRDA:718,0,11,0
BRDA:718,0,12,1
BRDA:718,0,13,0
BRDA:718,0,14,1
BRDA:718,0,15,0
BRDA:718,0,16,1
BRDA:718,0,17,0
DA:719,1
BRDA:719,0,0,1
BRDA:719,0,1,0
DA:720,1
DA:727,1
DA:729,1
DA:730,1
DA:734,1
DA:739,1
DA:708,1
DA:718,3
BRDA:718,0,0,1
BRDA:718,0,1,0
BRDA:718,0,2,1
BRDA:718,0,3,0
BRDA:718,0,4,1
BRDA:718,0,5,0
BRDA:718,0,6,1
BRDA:718,0,7,0
BRDA:718,0,8,1
BRDA:718,0,9,0
BRDA:718,0,10,1
BRDA:718,0,11,0
BRDA:718,0,12,1
BRDA:718,0,13,0
BRDA:718,0,14,1
BRDA:718,0,15,0
BRDA:718,0,16,1
BRDA:718,0,17,0
DA:719,1
BRDA:719,0,0,1
BRDA:719,0,1,0
DA:720,1
DA:727,1
DA:729,1
DA:730,1
DA:734,1
DA:739,1
DA:708,1
DA:718,3
BRDA:718,0,0,1
BRDA:718,0,1,0
BRDA:718,0,2,1
BRDA:718,0,3,0
BRDA:718,0,4,1
BRDA:718,0,5,0
BRDA:718,0,6,1
BRDA:718,0,7,0
BRDA:718,0,8,1
BRDA:718,0,9,0
BRDA:718,0,10,1
BRDA:718,0,11,0
BRDA:718,0,12,1
BRDA:718,0,13,0
BRDA:718,0,14,1
BRDA:718,0,15,0
BRDA:718,0,16,1
BRDA:718,0,17,0
DA:719,1
BRDA:719,0,0,1
BRDA:719,0,1,0
DA:720,1
DA:727,1
DA:729,1
DA:730,1
DA:734,1
DA:739,1
DA:747,1
DA:752,1
DA:747,1
DA:752,1
DA:747,1
DA:752,1
DA:747,1
DA:752,1
DA:747,1
DA:752,1
DA:747,1
DA:752,1
DA:768,1
DA:773,1
BRDA:773,0,0,1
BRDA:773,0,1,0
DA:774,2
BRDA:774,0,0,1
BRDA:774,0,1,0
BRDA:774,0,2,1
BRDA:774,0,3,0
DA:776,1
BRDA:776,0,0,1
BRDA:776,0,1,0
BRDA:776,0,2,0
BRDA:776,0,3,1
DA:777,0
BRDA:777,0,0,-
BRDA:777,0,1,-
BRDA:777,0,2,-
BRDA:777,0,3,-
DA:781,0
BRDA:781,0,0,-
BRDA:781,0,1,-
DA:782,0
DA:784,1
BRDA:784,0,0,1
BRDA:784,0,1,0
DA:789,1
BRDA:789,0,0,1
BRDA:789,0,1,0
DA:794,1
DA:797,2
DA:768,1
DA:773,1
BRDA:773,0,0,1
BRDA:773,0,1,0
DA:774,1
BRDA:774,0,0,1
BRDA:774,0,1,0
BRDA:774,0,2,1
BRDA:774,0,3,0
DA:776,1
BRDA:776,0,0,1
BRDA:776,0,1,0
BRDA:776,0,2,0
BRDA:776,0,3,1
DA:777,0
BRDA:777,0,0,-
BRDA:777,0,1,-
BRDA:777,0,2,-
BRDA:777,0,3,-
DA:781,0
BRDA:781,0,0,-
BRDA:781,0,1,-
DA:782,0
DA:784,1
BRDA:784,0,0,1
BRDA:784,0,1,0
DA:789,1
BRDA:789,0,0,1
BRDA:789,0,1,0
DA:794,2
BRDA:794,0,0,1
BRDA:794,0,1,0
BRDA:794,0,2,1
BRDA:794,0,3,0
DA:797,2
DA:768,1
DA:773,1
BRDA:773,0,0,1
BRDA:773,0,1,0
DA:774,1
BRDA:774,0,0,1
BRDA:774,0,1,0
BRDA:774,0,2,1
BRDA:774,0,3,0
DA:776,1
BRDA:776,0,0,1
BRDA:776,0,1,0
BRDA:776,0,2,0
BRDA:776,0,3,1
DA:777,0
BRDA:777,0,0,-
BRDA:777,0,1,-
BRDA:777,0,2,-
BRDA:777,0,3,-
DA:781,0
BRDA:781,0,0,-
BRDA:781,0,1,-
DA:782,0
DA:784,1
BRDA:784,0,0,1
BRDA:784,0,1,0
DA:789,1
BRDA:789,0,0,1
BRDA:789,0,1,0
DA:794,2
BRDA:794,0,0,1
BRDA:794,0,1,0
BRDA:794,0,2,1
BRDA:794,0,3,0
DA:797,2
DA:805,1
DA:810,1
end_of_record
SF:/usr/include/c++/9/typeinfo
FN:99,_ZNKSt9type_info4nameEv
FNDA:12,_ZNKSt9type_info4nameEv
DA:99,12
DA:100,12
BRDA:100,0,0,0
BRDA:100,0,1,12
end_of_record
SF:/usr/include/c++/9/bits/stl_iterator_base_types.h
FN:205,_ZSt19__iterator_categoryIPcENSt15iterator_traitsIT_E17iterator_categoryERKS2_
FNDA:0,_ZSt19__iterator_categoryIPcENSt15iterator_traitsIT_E17iterator_categoryERKS2_
FN:205,_ZSt19__iterator_categoryIPKcENSt15iterator_traitsIT_E17iterator_categoryERKS3_
FNDA:145,_ZSt19__iterator_categoryIPKcENSt15iterator_traitsIT_E17iterator_categoryERKS3_
DA:205,0
DA:206,0
DA:205,145
DA:206,145
end_of_record
SF:/usr/include/c++/9/bits/alloc_traits.h
FN:443,_ZNSt16allocator_traitsISaINSt7__cxx1112basic_stringIcSt11char_traitsIcESaIcEEEEE8allocateERS6_m
FNDA:13,_ZNSt16allocator_traitsISaINSt7__cxx1112basic_stringIcSt11char_traitsIcESaIcEEEEE8allocateERS6_m
FN:443,_ZNSt16allocator_traitsISaISt13_Rb_tree_nodeISt4pairIKNSt7__cxx1112basic_stringIcSt11char_traitsIcESaIcEEEN7testing8internal12CodeLocationEEEEE8allocateERSE_m
FNDA:3,_ZNSt16allocator_traitsISaISt13_Rb_tree_nodeISt4pairIKNSt7__cxx1112basic_stringIcSt11char_traitsIcESaIcEEEN7testing8internal12CodeLocationEEEEE8allocateERSE_m
FN:469,_ZNSt16allocator_traitsISaISt13_Rb_tree_nodeISt4pairIKNSt7__cxx1112basic_stringIcSt11char_traitsIcESaIcEEEN7testing8internal12CodeLocationEEEEE10deallocateERSE_PSD_m
FNDA:3,_ZNSt16allocator_traitsISaISt13_Rb_tree_nodeISt4pairIKNSt7__cxx1112basic_stringIcSt11char_traitsIcESaIcEEEN7testing8internal12CodeLocationEEEEE10deallocateERSE_PSD_m
FN:469,_ZNSt16allocator_traitsISaINSt7__cxx1112basic_stringIcSt11char_traitsIcESaIcEEEEE10deallocateERS6_PS5_m
FNDA:13,_ZNSt16allocator_traitsISaINSt7__cxx1112basic_stringIcSt11char_traitsIcESaIcEEEEE10deallocateERS6_PS5_m
FN:482,_ZNSt16allocator_traitsISaINSt7__cxx1112basic_stringIcSt11char_traitsIcESaIcEEEEE9constructIS5_JS5_EEEvRS6_PT_DpOT0_
FNDA:19,_ZNSt16allocator_traitsISaINSt7__cxx1112basic_stringIcSt11char_traitsIcESaIcEEEEE9constructIS5_JS5_EEEvRS6_PT_DpOT0_
FN:482,_ZNSt16allocator_traitsISaISt13_Rb_tree_nodeISt4pairIKNSt7__cxx1112basic_stringIcSt11char_traitsIcESaIcEEEN7testing8internal12CodeLocationEEEEE9constructISC_JS1_IPKcSB_EEEEvRSE_PT_DpOT0_
FNDA:3,_ZNSt16allocator_traitsISaISt13_Rb_tree_nodeISt4pairIKNSt7__cxx1112basic_stringIcSt11char_traitsIcESaIcEEEN7testing8internal12CodeLocationEEEEE9constructISC_JS1_IPKcSB_EEEEvRSE_PT_DpOT0_
FN:495,_ZNSt16allocator_traitsISaINSt7__cxx1112basic_stringIcSt11char_traitsIcESaIcEEEEE7destroyIS5_EEvRS6_PT_
FNDA:7,_ZNSt16allocator_traitsISaINSt7__cxx1112basic_stringIcSt11char_traitsIcESaIcEEEEE7destroyIS5_EEvRS6_PT_
FN:495,_ZNSt16allocator_traitsISaISt13_Rb_tree_nodeISt4pairIKNSt7__cxx1112basic_stringIcSt11char_traitsIcESaIcEEEN7testing8internal12CodeLocationEEEEE7destroyISC_EEvRSE_PT_
FNDA:3,_ZNSt16allocator_traitsISaISt13_Rb_tree_nodeISt4pairIKNSt7__cxx1112basic_stringIcSt11char_traitsIcESaIcEEEN7testing8internal12CodeLocationEEEEE7destroyISC_EEvRSE_PT_
FN:505,_ZNSt16allocator_traitsISaINSt7__cxx1112basic_stringIcSt11char_traitsIcESaIcEEEEE8max_sizeERKS6_
FNDA:24,_ZNSt16allocator_traitsISaINSt7__cxx1112basic_stringIcSt11char_traitsIcESaIcEEEEE8max_sizeERKS6_
FN:514,_ZNSt16allocator_traitsISaIcEE37select_on_container_copy_constructionERKS0_
FNDA:0,_ZNSt16allocator_traitsISaIcEE37select_on_container_copy_constructionERKS0_
DA:443,13
DA:444,13
DA:443,3
DA:444,3
DA:469,3
DA:470,3
DA:469,13
DA:470,13
DA:482,19
DA:484,19
DA:482,3
DA:484,3
DA:495,7
DA:497,7
DA:495,3
DA:497,3
DA:505,24
DA:506,24
DA:514,0
DA:515,0
end_of_record
SF:/usr/include/c++/9/bits/allocator.h
FN:138,_ZNSaINSt7__cxx1112basic_stringIcSt11char_traitsIcESaIcEEEEC2Ev
FNDA:6,_ZNSaINSt7__cxx1112basic_stringIcSt11char_traitsIcESaIcEEEEC2Ev
FN:138,_ZNSaISt13_Rb_tree_nodeISt4pairIKNSt7__cxx1112basic_stringIcSt11char_traitsIcESaIcEEEN7testing8internal12CodeLocationEEEEC2Ev
FNDA:1,_ZNSaISt13_Rb_tree_nodeISt4pairIKNSt7__cxx1112basic_stringIcSt11char_traitsIcESaIcEEEN7testing8internal12CodeLocationEEEEC2Ev
FN:153,_ZNSaINSt7__cxx1112basic_stringIcSt11char_traitsIcESaIcEEEED2Ev
FNDA:10,_ZNSaINSt7__cxx1112basic_stringIcSt11char_traitsIcESaIcEEEED2Ev
FN:153,_ZNSaISt13_Rb_tree_nodeISt4pairIKNSt7__cxx1112basic_stringIcSt11char_traitsIcESaIcEEEN7testing8internal12CodeLocationEEEED2Ev
FNDA:1,_ZNSaISt13_Rb_tree_nodeISt4pairIKNSt7__cxx1112basic_stringIcSt11char_traitsIcESaIcEEEN7testing8internal12CodeLocationEEEED2Ev
DA:138,6
DA:138,1
DA:153,10
DA:153,1
end_of_record
SF:/usr/include/c++/9/bits/stl_tree.h
FN:146,_ZNSt20_Rb_tree_key_compareISt4lessINSt7__cxx1112basic_stringIcSt11char_traitsIcESaIcEEEEEC2Ev
FNDA:4,_ZNSt20_Rb_tree_key_compareISt4lessINSt7__cxx1112basic_stringIcSt11char_traitsIcESaIcEEEEEC2Ev
FN:173,_ZNSt15_Rb_tree_headerC2Ev
FNDA:4,_ZNSt15_Rb_tree_headerC2Ev
FN:206,_ZNSt15_Rb_tree_header8_M_resetEv
FNDA:4,_ZNSt15_Rb_tree_header8_M_resetEv
FN:234,_ZNSt13_Rb_tree_nodeISt4pairIKNSt7__cxx1112basic_stringIcSt11char_traitsIcESaIcEEEN7testing8internal12CodeLocationEEE9_M_valptrEv
FNDA:6,_ZNSt13_Rb_tree_nodeISt4pairIKNSt7__cxx1112basic_stringIcSt11char_traitsIcESaIcEEEN7testing8internal12CodeLocationEEE9_M_valptrEv
FN:238,_ZNKSt13_Rb_tree_nodeISt4pairIKNSt7__cxx1112basic_stringIcSt11char_traitsIcESaIcEEEN7testing8internal12CodeLocationEEE9_M_valptrEv
FNDA:43,_ZNKSt13_Rb_tree_nodeISt4pairIKNSt7__cxx1112basic_stringIcSt11char_traitsIcESaIcEEEN7testing8internal12CodeLocationEEE9_M_valptrEv
FN:273,_ZNSt17_Rb_tree_iteratorISt4pairIKNSt7__cxx1112basic_stringIcSt11char_traitsIcESaIcEEEN7testing8internal12CodeLocationEEEC2EPSt18_Rb_tree_node_base
FNDA:13,_ZNSt17_Rb_tree_iteratorISt4pairIKNSt7__cxx1112basic_stringIcSt11char_traitsIcESaIcEEEN7testing8internal12CodeLocationEEEC2EPSt18_Rb_tree_node_base
FN:300,_ZNSt17_Rb_tree_iteratorISt4pairIKNSt7__cxx1112basic_stringIcSt11char_traitsIcESaIcEEEN7testing8internal12CodeLocationEEEmmEv
FNDA:0,_ZNSt17_Rb_tree_iteratorISt4pairIKNSt7__cxx1112basic_stringIcSt11char_traitsIcESaIcEEEN7testing8internal12CodeLocationEEEmmEv
FN:315,_ZSteqRKSt17_Rb_tree_iteratorISt4pairIKNSt7__cxx1112basic_stringIcSt11char_traitsIcESaIcEEEN7testing8internal12CodeLocationEEESE_
FNDA:2,_ZSteqRKSt17_Rb_tree_iteratorISt4pairIKNSt7__cxx1112basic_stringIcSt11char_traitsIcESaIcEEEN7testing8internal12CodeLocationEEESE_
FN:345,_ZNSt23_Rb_tree_const_iteratorISt4pairIKNSt7__cxx1112basic_stringIcSt11char_traitsIcESaIcEEEN7testing8internal12CodeLocationEEEC2EPKSt18_Rb_tree_node_base
FNDA:27,_ZNSt23_Rb_tree_const_iteratorISt4pairIKNSt7__cxx1112basic_stringIcSt11char_traitsIcESaIcEEEN7testing8internal12CodeLocationEEEC2EPKSt18_Rb_tree_node_base
FN:360,_ZNKSt23_Rb_tree_const_iteratorISt4pairIKNSt7__cxx1112basic_stringIcSt11char_traitsIcESaIcEEEN7testing8internal12CodeLocationEEEptEv
FNDA:6,_ZNKSt23_Rb_tree_const_iteratorISt4pairIKNSt7__cxx1112basic_stringIcSt11char_traitsIcESaIcEEEN7testing8internal12CodeLocationEEEptEv
FN:394,_ZSteqRKSt23_Rb_tree_const_iteratorISt4pairIKNSt7__cxx1112basic_stringIcSt11char_traitsIcESaIcEEEN7testing8internal12CodeLocationEEESE_
FNDA:15,_ZSteqRKSt23_Rb_tree_const_iteratorISt4pairIKNSt7__cxx1112basic_stringIcSt11char_traitsIcESaIcEEEN7testing8internal12CodeLocationEEESE_
FN:398,_ZStneRKSt23_Rb_tree_const_iteratorISt4pairIKNSt7__cxx1112basic_stringIcSt11char_traitsIcESaIcEEEN7testing8internal12CodeLocationEEESE_
FNDA:7,_ZStneRKSt23_Rb_tree_const_iteratorISt4pairIKNSt7__cxx1112basic_stringIcSt11char_traitsIcESaIcEEEN7testing8internal12CodeLocationEEESE_
FN:566,_ZNSt8_Rb_treeINSt7__cxx1112basic_stringIcSt11char_traitsIcESaIcEEESt4pairIKS5_N7testing8internal12CodeLocationEESt10_Select1stISB_ESt4lessIS5_ESaISB_EE21_M_get_Node_allocatorEv
FNDA:12,_ZNSt8_Rb_treeINSt7__cxx1112basic_stringIcSt11char_traitsIcESaIcEEESt4pairIKS5_N7testing8internal12CodeLocationEESt10_Select1stISB_ESt4lessIS5_ESaISB_EE21_M_get_Node_allocatorEv
FN:579,_ZNSt8_Rb_treeINSt7__cxx1112basic_stringIcSt11char_traitsIcESaIcEEESt4pairIKS5_N7testing8internal12CodeLocationEESt10_Select1stISB_ESt4lessIS5_ESaISB_EE11_M_get_nodeEv
FNDA:3,_ZNSt8_Rb_treeINSt7__cxx1112basic_stringIcSt11char_traitsIcESaIcEEESt4pairIKS5_N7testing8internal12CodeLocationEESt10_Select1stISB_ESt4lessIS5_ESaISB_EE11_M_get_nodeEv
FN:583,_ZNSt8_Rb_treeINSt7__cxx1112basic_stringIcSt11char_traitsIcESaIcEEESt4pairIKS5_N7testing8internal12CodeLocationEESt10_Select1stISB_ESt4lessIS5_ESaISB_EE11_M_put_nodeEPSt13_Rb_tree_nodeISB_E
FNDA:3,_ZNSt8_Rb_treeINSt7__cxx1112basic_stringIcSt11char_traitsIcESaIcEEESt4pairIKS5_N7testing8internal12CodeLocationEESt10_Select1stISB_ESt4lessIS5_ESaISB_EE11_M_put_nodeEPSt13_Rb_tree_nodeISB_E
FN:609,_ZNSt8_Rb_treeINSt7__cxx1112basic_stringIcSt11char_traitsIcESaIcEEESt4pairIKS5_N7testing8internal12CodeLocationEESt10_Select1stISB_ESt4lessIS5_ESaISB_EE17_M_construct_nodeIJS6_IPKcSA_EEEEvPSt13_Rb_tree_nodeISB_EDpOT_
FNDA:3,_ZNSt8_Rb_treeINSt7__cxx1112basic_stringIcSt11char_traitsIcESaIcEEESt4pairIKS5_N7testing8internal12CodeLocationEESt10_Select1stISB_ESt4lessIS5_ESaISB_EE17_M_construct_nodeIJS6_IPKcSA_EEEEvPSt13_Rb_tree_nodeISB_EDpOT_
FN:628,_ZNSt8_Rb_treeINSt7__cxx1112basic_stringIcSt11char_traitsIcESaIcEEESt4pairIKS5_N7testing8internal12CodeLocationEESt10_Select1stISB_ESt4lessIS5_ESaISB_EE14_M_create_nodeIJS6_IPKcSA_EEEEPSt13_Rb_tree_nodeISB_EDpOT_
FNDA:3,_ZNSt8_Rb_treeINSt7__cxx1112basic_stringIcSt11char_traitsIcESaIcEEESt4pairIKS5_N7testing8internal12CodeLocationEESt10_Select1stISB_ESt4lessIS5_ESaISB_EE14_M_create_nodeIJS6_IPKcSA_EEEEPSt13_Rb_tree_nodeISB_EDpOT_
FN:637,_ZNSt8_Rb_treeINSt7__cxx1112basic_stringIcSt11char_traitsIcESaIcEEESt4pairIKS5_N7testing8internal12CodeLocationEESt10_Select1stISB_ESt4lessIS5_ESaISB_EE15_M_destroy_nodeEPSt13_Rb_tree_nodeISB_E
FNDA:3,_ZNSt8_Rb_treeINSt7__cxx1112basic_stringIcSt11char_traitsIcESaIcEEESt4pairIKS5_N7testing8internal12CodeLocationEESt10_Select1stISB_ESt4lessIS5_ESaISB_EE15_M_destroy_nodeEPSt13_Rb_tree_nodeISB_E
FN:648,_ZNSt8_Rb_treeINSt7__cxx1112basic_stringIcSt11char_traitsIcESaIcEEESt4pairIKS5_N7testing8internal12CodeLocationEESt10_Select1stISB_ESt4lessIS5_ESaISB_EE12_M_drop_nodeEPSt13_Rb_tree_nodeISB_E
FNDA:3,_ZNSt8_Rb_treeINSt7__cxx1112basic_stringIcSt11char_traitsIcESaIcEEESt4pairIKS5_N7testing8internal12CodeLocationEESt10_Select1stISB_ESt4lessIS5_ESaISB_EE12_M_drop_nodeEPSt13_Rb_tree_nodeISB_E
FN:680,_ZNSt8_Rb_treeINSt7__cxx1112basic_stringIcSt11char_traitsIcESaIcEEESt4pairIKS5_N7testing8internal12CodeLocationEESt10_Select1stISB_ESt4lessIS5_ESaISB_EE13_Rb_tree_implISF_Lb1EEC2Ev
FNDA:1,_ZNSt8_Rb_treeINSt7__cxx1112basic_stringIcSt11char_traitsIcESaIcEEESt4pairIKS5_N7testing8internal12CodeLocationEESt10_Select1stISB_ESt4lessIS5_ESaISB_EE13_Rb_tree_implISF_Lb1EEC2Ev
FN:744,_ZNSt8_Rb_treeINSt7__cxx1112basic_stringIcSt11char_traitsIcESaIcEEESt4pairIKS5_N7testing8internal12CodeLocationEESt10_Select1stISB_ESt4lessIS5_ESaISB_EE8_M_beginEv
FNDA:4,_ZNSt8_Rb_treeINSt7__cxx1112basic_stringIcSt11char_traitsIcESaIcEEESt4pairIKS5_N7testing8internal12CodeLocationEESt10_Select1stISB_ESt4lessIS5_ESaISB_EE8_M_beginEv
FN:748,_ZNKSt8_Rb_treeINSt7__cxx1112basic_stringIcSt11char_traitsIcESaIcEEESt4pairIKS5_N7testing8internal12CodeLocationEESt10_Select1stISB_ESt4lessIS5_ESaISB_EE8_M_beginEv
FNDA:9,_ZNKSt8_Rb_treeINSt7__cxx1112basic_stringIcSt11char_traitsIcESaIcEEESt4pairIKS5_N7testing8internal12CodeLocationEESt10_Select1stISB_ESt4lessIS5_ESaISB_EE8_M_beginEv
FN:755,_ZNSt8_Rb_treeINSt7__cxx1112basic_stringIcSt11char_traitsIcESaIcEEESt4pairIKS5_N7testing8internal12CodeLocationEESt10_Select1stISB_ESt4lessIS5_ESaISB_EE6_M_endEv
FNDA:6,_ZNSt8_Rb_treeINSt7__cxx1112basic_stringIcSt11char_traitsIcESaIcEEESt4pairIKS5_N7testing8internal12CodeLocationEESt10_Select1stISB_ESt4lessIS5_ESaISB_EE6_M_endEv
FN:759,_ZNKSt8_Rb_treeINSt7__cxx1112basic_stringIcSt11char_traitsIcESaIcEEESt4pairIKS5_N7testing8internal12CodeLocationEESt10_Select1stISB_ESt4lessIS5_ESaISB_EE6_M_endEv
FNDA:9,_ZNKSt8_Rb_treeINSt7__cxx1112basic_stringIcSt11char_traitsIcESaIcEEESt4pairIKS5_N7testing8internal12CodeLocationEESt10_Select1stISB_ESt4lessIS5_ESaISB_EE6_M_endEv
FN:767,_ZNSt8_Rb_treeINSt7__cxx1112basic_stringIcSt11char_traitsIcESaIcEEESt4pairIKS5_N7testing8internal12CodeLocationEESt10_Select1stISB_ESt4lessIS5_ESaISB_EE6_S_keyEPKSt13_Rb_tree_nodeISB_E
FNDA:37,_ZNSt8_Rb_treeINSt7__cxx1112basic_stringIcSt11char_traitsIcESaIcEEESt4pairIKS5_N7testing8internal12CodeLocationEESt10_Select1stISB_ESt4lessIS5_ESaISB_EE6_S_keyEPKSt13_Rb_tree_nodeISB_E
FN:789,_ZNSt8_Rb_treeINSt7__cxx1112basic_stringIcSt11char_traitsIcESaIcEEESt4pairIKS5_N7testing8internal12CodeLocationEESt10_Select1stISB_ESt4lessIS5_ESaISB_EE7_S_leftEPSt18_Rb_tree_node_base
FNDA:4,_ZNSt8_Rb_treeINSt7__cxx1112basic_stringIcSt11char_traitsIcESaIcEEESt4pairIKS5_N7testing8internal12CodeLocationEESt10_Select1stISB_ESt4lessIS5_ESaISB_EE7_S_leftEPSt18_Rb_tree_node_base
FN:793,_ZNSt8_Rb_treeINSt7__cxx1112basic_stringIcSt11char_traitsIcESaIcEEESt4pairIKS5_N7testing8internal12CodeLocationEESt10_Select1stISB_ESt4lessIS5_ESaISB_EE7_S_leftEPKSt18_Rb_tree_node_base
FNDA:12,_ZNSt8_Rb_treeINSt7__cxx1112basic_stringIcSt11char_traitsIcESaIcEEESt4pairIKS5_N7testing8internal12CodeLocationEESt10_Select1stISB_ESt4lessIS5_ESaISB_EE7_S_leftEPKSt18_Rb_tree_node_base
FN:797,_ZNSt8_Rb_treeINSt7__cxx1112basic_stringIcSt11char_traitsIcESaIcEEESt4pairIKS5_N7testing8internal12CodeLocationEESt10_Select1stISB_ESt4lessIS5_ESaISB_EE8_S_rightEPSt18_Rb_tree_node_base
FNDA:4,_ZNSt8_Rb_treeINSt7__cxx1112basic_stringIcSt11char_traitsIcESaIcEEESt4pairIKS5_N7testing8internal12CodeLocationEESt10_Select1stISB_ESt4lessIS5_ESaISB_EE8_S_rightEPSt18_Rb_tree_node_base
FN:801,_ZNSt8_Rb_treeINSt7__cxx1112basic_stringIcSt11char_traitsIcESaIcEEESt4pairIKS5_N7testing8internal12CodeLocationEESt10_Select1stISB_ESt4lessIS5_ESaISB_EE8_S_rightEPKSt18_Rb_tree_node_base
FNDA:6,_ZNSt8_Rb_treeINSt7__cxx1112basic_stringIcSt11char_traitsIcESaIcEEESt4pairIKS5_N7testing8internal12CodeLocationEESt10_Select1stISB_ESt4lessIS5_ESaISB_EE8_S_rightEPKSt18_Rb_tree_node_base
FN:809,_ZNSt8_Rb_treeINSt7__cxx1112basic_stringIcSt11char_traitsIcESaIcEEESt4pairIKS5_N7testing8internal12CodeLocationEESt10_Select1stISB_ESt4lessIS5_ESaISB_EE6_S_keyEPKSt18_Rb_tree_node_base
FNDA:12,_ZNSt8_Rb_treeINSt7__cxx1112basic_stringIcSt11char_traitsIcESaIcEEESt4pairIKS5_N7testing8internal12CodeLocationEESt10_Select1stISB_ESt4lessIS5_ESaISB_EE6_S_keyEPKSt18_Rb_tree_node_base
FN:939,_ZNSt8_Rb_treeINSt7__cxx1112basic_stringIcSt11char_traitsIcESaIcEEESt4pairIKS5_N7testing8internal12CodeLocationEESt10_Select1stISB_ESt4lessIS5_ESaISB_EEC2Ev
FNDA:1,_ZNSt8_Rb_treeINSt7__cxx1112basic_stringIcSt11char_traitsIcESaIcEEESt4pairIKS5_N7testing8internal12CodeLocationEESt10_Select1stISB_ESt4lessIS5_ESaISB_EEC2Ev
FN:994,_ZNSt8_Rb_treeINSt7__cxx1112basic_stringIcSt11char_traitsIcESaIcEEESt4pairIKS5_N7testing8internal12CodeLocationEESt10_Select1stISB_ESt4lessIS5_ESaISB_EED2Ev
FNDA:1,_ZNSt8_Rb_treeINSt7__cxx1112basic_stringIcSt11char_traitsIcESaIcEEESt4pairIKS5_N7testing8internal12CodeLocationEESt10_Select1stISB_ESt4lessIS5_ESaISB_EED2Ev
FN:1006,_ZNSt8_Rb_treeINSt7__cxx1112basic_stringIcSt11char_traitsIcESaIcEEESt4pairIKS5_N7testing8internal12CodeLocationEESt10_Select1stISB_ESt4lessIS5_ESaISB_EE5beginEv
FNDA:3,_ZNSt8_Rb_treeINSt7__cxx1112basic_stringIcSt11char_traitsIcESaIcEEESt4pairIKS5_N7testing8internal12CodeLocationEESt10_Select1stISB_ESt4lessIS5_ESaISB_EE5beginEv
FN:1018,_ZNKSt8_Rb_treeINSt7__cxx1112basic_stringIcSt11char_traitsIcESaIcEEESt4pairIKS5_N7testing8internal12CodeLocationEESt10_Select1stISB_ESt4lessIS5_ESaISB_EE3endEv
FNDA:18,_ZNKSt8_Rb_treeINSt7__cxx1112basic_stringIcSt11char_traitsIcESaIcEEESt4pairIKS5_N7testing8internal12CodeLocationEESt10_Select1stISB_ESt4lessIS5_ESaISB_EE3endEv
FN:1907,_ZNSt8_Rb_treeINSt7__cxx1112basic_stringIcSt11char_traitsIcESaIcEEESt4pairIKS5_N7testing8internal12CodeLocationEESt10_Select1stISB_ESt4lessIS5_ESaISB_EE8_M_eraseEPSt13_Rb_tree_nodeISB_E
FNDA:4,_ZNSt8_Rb_treeINSt7__cxx1112basic_stringIcSt11char_traitsIcESaIcEEESt4pairIKS5_N7testing8internal12CodeLocationEESt10_Select1stISB_ESt4lessIS5_ESaISB_EE8_M_eraseEPSt13_Rb_tree_nodeISB_E
FN:1940,_ZNKSt8_Rb_treeINSt7__cxx1112basic_stringIcSt11char_traitsIcESaIcEEESt4pairIKS5_N7testing8internal12CodeLocationEESt10_Select1stISB_ESt4lessIS5_ESaISB_EE14_M_lower_boundEPKSt13_Rb_tree_nodeISB_EPKSt18_Rb_tree_node_baseRS7_
FNDA:9,_ZNKSt8_Rb_treeINSt7__cxx1112basic_stringIcSt11char_traitsIcESaIcEEESt4pairIKS5_N7testing8internal12CodeLocationEESt10_Select1stISB_ESt4lessIS5_ESaISB_EE14_M_lower_boundEPKSt13_Rb_tree_nodeISB_EPKSt18_Rb_tree_node_baseRS7_
FN:2085,_ZNSt8_Rb_treeINSt7__cxx1112basic_stringIcSt11char_traitsIcESaIcEEESt4pairIKS5_N7testing8internal12CodeLocationEESt10_Select1stISB_ESt4lessIS5_ESaISB_EE24_M_get_insert_unique_posERS7_
FNDA:3,_ZNSt8_Rb_treeINSt7__cxx1112basic_stringIcSt11char_traitsIcESaIcEEESt4pairIKS5_N7testing8internal12CodeLocationEESt10_Select1stISB_ESt4lessIS5_ESaISB_EE24_M_get_insert_unique_posERS7_
FN:2354,_ZNSt8_Rb_treeINSt7__cxx1112basic_stringIcSt11char_traitsIcESaIcEEESt4pairIKS5_N7testing8internal12CodeLocationEESt10_Select1stISB_ESt4lessIS5_ESaISB_EE14_M_insert_nodeEPSt18_Rb_tree_node_baseSJ_PSt13_Rb_tree_nodeISB_E
FNDA:3,_ZNSt8_Rb_treeINSt7__cxx1112basic_stringIcSt11char_traitsIcESaIcEEESt4pairIKS5_N7testing8internal12CodeLocationEESt10_Select1stISB_ESt4lessIS5_ESaISB_EE14_M_insert_nodeEPSt18_Rb_tree_node_baseSJ_PSt13_Rb_tree_nodeISB_E
FN:2405,_ZNSt8_Rb_treeINSt7__cxx1112basic_stringIcSt11char_traitsIcESaIcEEESt4pairIKS5_N7testing8internal12CodeLocationEESt10_Select1stISB_ESt4lessIS5_ESaISB_EE17_M_emplace_uniqueIJS6_IPKcSA_EEEES6_ISt17_Rb_tree_iteratorISB_EbEDpOT_
FNDA:3,_ZNSt8_Rb_treeINSt7__cxx1112basic_stringIcSt11char_traitsIcESaIcEEESt4pairIKS5_N7testing8internal12CodeLocationEESt10_Select1stISB_ESt4lessIS5_ESaISB_EE17_M_emplace_uniqueIJS6_IPKcSA_EEEES6_ISt17_Rb_tree_iteratorISB_EbEDpOT_
FN:2567,_ZNKSt8_Rb_treeINSt7__cxx1112basic_stringIcSt11char_traitsIcESaIcEEESt4pairIKS5_N7testing8internal12CodeLocationEESt10_Select1stISB_ESt4lessIS5_ESaISB_EE4findERS7_
FNDA:9,_ZNKSt8_Rb_treeINSt7__cxx1112basic_stringIcSt11char_traitsIcESaIcEEESt4pairIKS5_N7testing8internal12CodeLocationEESt10_Select1stISB_ESt4lessIS5_ESaISB_EE4findERS7_
DA:146,4
DA:150,4
DA:173,4
DA:174,4
DA:175,4
DA:176,4
DA:177,4
DA:206,4
DA:208,4
DA:209,4
DA:210,4
DA:211,4
DA:212,4
DA:234,6
DA:235,6
DA:238,43
DA:239,43
DA:273,13
DA:274,13
DA:300,0
DA:302,0
DA:303,0
DA:315,2
DA:316,2
DA:345,27
DA:346,27
DA:360,6
DA:361,6
DA:394,15
DA:395,15
DA:398,7
DA:399,7
DA:566,12
DA:567,12
DA:579,3
DA:580,3
DA:583,3
DA:584,3
DA:609,3
DA:613,3
DA:614,3
BRDA:614,0,0,3
BRDA:614,0,1,0
DA:618,0
DA:620,0
DA:621,0
DA:622,0
DA:624,3
DA:628,3
DA:630,3
DA:631,3
DA:632,3
DA:637,3
DA:642,3
DA:643,3
DA:645,3
DA:648,3
DA:650,3
DA:651,3
DA:652,3
DA:680,1
DA:684,1
DA:685,1
DA:744,4
DA:745,4
DA:748,9
DA:751,9
DA:755,6
DA:756,6
DA:759,9
DA:760,9
DA:767,37
DA:785,37
DA:789,4
DA:790,4
DA:793,12
DA:794,12
DA:797,4
DA:798,4
DA:801,6
DA:802,6
DA:809,12
DA:810,12
DA:939,1
DA:994,1
DA:995,1
DA:1006,3
DA:1007,3
DA:1018,18
DA:1019,18
DA:1907,7
DA:1911,7
BRDA:1911,0,0,3
BRDA:1911,0,1,4
DA:1913,3
DA:1914,3
DA:1915,3
DA:1916,3
DA:1918,4
DA:1940,27
DA:1944,27
BRDA:1944,0,0,18
BRDA:1944,0,1,9
DA:1945,18
BRDA:1945,0,0,12
BRDA:1945,0,1,6
DA:1946,12
DA:1948,6
DA:1949,9
DA:2085,3
DA:2089,3
DA:2090,3
DA:2091,3
DA:2092,5
BRDA:2092,0,0,2
BRDA:2092,0,1,3
DA:2094,2
DA:2095,2
BRDA:2095,0,0,2
BRDA:2095,0,1,0
DA:2096,2
BRDA:2096,0,0,1
BRDA:2096,0,1,1
DA:2098,3
DA:2099,3
BRDA:2099,0,0,2
BRDA:2099,0,1,1
DA:2101,2
BRDA:2101,0,0,2
BRDA:2101,0,1,0
DA:2102,2
DA:2104,0
DA:2106,1
BRDA:2106,0,0,1
BRDA:2106,0,1,0
BRDA:2106,0,2,1
BRDA:2106,0,3,0
DA:2107,1
DA:2108,0
DA:2354,3
DA:2357,3
BRDA:2357,0,0,2
BRDA:2357,0,1,1
DA:2358,6
BRDA:2358,0,0,3
BRDA:2358,0,1,0
BRDA:2358,0,2,1
BRDA:2358,0,3,1
DA:2361,3
DA:2362,3
DA:2363,3
DA:2364,3
DA:2405,3
DA:2408,3
DA:2413,3
BRDA:2413,0,0,3
BRDA:2413,0,1,0
BRDA:2413,0,2,3
BRDA:2413,0,3,0
DA:2414,3
BRDA:2414,0,0,3
BRDA:2414,0,1,0
DA:2415,3
BRDA:2415,0,0,3
BRDA:2415,0,1,0
DA:2417,0
DA:2418,0
DA:2420,0
DA:2422,0
DA:2423,0
DA:2567,9
DA:2570,9
BRDA:2570,0,0,9
BRDA:2570,0,1,0
DA:2571,18
DA:2572,9
BRDA:2572,0,0,9
BRDA:2572,0,1,0
BRDA:2572,0,2,0
BRDA:2572,0,3,9
DA:2573,27
BRDA:2573,0,0,9
BRDA:2573,0,1,0
end_of_record
SF:/workspaces/mock_test/type/prime_tables.h
FN:12,_ZN10PrimeTableD0Ev
FNDA:0,_ZN10PrimeTableD0Ev
FN:12,_ZN10PrimeTableD2Ev
FNDA:12,_ZN10PrimeTableD2Ev
FN:26,_ZNK18OnTheFlyPrimeTable7IsPrimeEi
FNDA:52,_ZNK18OnTheFlyPrimeTable7IsPrimeEi
FN:37,_ZNK18OnTheFlyPrimeTable12GetNextPrimeEi
FNDA:12,_ZNK18OnTheFlyPrimeTable12GetNextPrimeEi
FN:52,_ZN23PreCalculatedPrimeTableC2Ei
FNDA:6,_ZN23PreCalculatedPrimeTableC2Ei
FN:56,_ZN23PreCalculatedPrimeTableD0Ev
FNDA:6,_ZN23PreCalculatedPrimeTableD0Ev
FN:56,_ZN23PreCalculatedPrimeTableD2Ev
FNDA:6,_ZN23PreCalculatedPrimeTableD2Ev
FN:58,_ZNK23PreCalculatedPrimeTable7IsPrimeEi
FNDA:24,_ZNK23PreCalculatedPrimeTable7IsPrimeEi
FN:62,_ZNK23PreCalculatedPrimeTable12GetNextPrimeEi
FNDA:12,_ZNK23PreCalculatedPrimeTable12GetNextPrimeEi
FN:71,_ZN23PreCalculatedPrimeTable19CalculatePrimesUpToEi
FNDA:6,_ZN23PreCalculatedPrimeTable19CalculatePrimesUpToEi
DA:12,0
DA:12,12
DA:26,52
DA:27,52
BRDA:27,0,0,8
BRDA:27,0,1,44
DA:29,104
BRDA:29,0,0,80
BRDA:29,0,1,24
DA:31,80
BRDA:31,0,0,20
BRDA:31,0,1,60
DA:34,24
DA:37,12
DA:38,28
BRDA:38,0,0,28
BRDA:38,0,1,0
DA:39,28
BRDA:39,0,0,12
BRDA:39,0,1,16
DA:42,0
DA:52,6
DA:53,6
BRDA:53,0,0,6
BRDA:53,0,1,0
DA:54,6
BRDA:54,0,0,6
BRDA:54,0,1,0
DA:55,6
DA:56,6
DA:56,6
BRDA:56,0,0,6
BRDA:56,0,1,0
DA:58,24
DA:59,24
BRDA:59,0,0,22
BRDA:59,0,1,2
BRDA:59,0,2,22
BRDA:59,0,3,0
BRDA:59,0,4,12
BRDA:59,0,5,10
DA:62,12
DA:63,28
BRDA:63,0,0,28
BRDA:63,0,1,0
DA:64,28
BRDA:64,0,0,12
BRDA:64,0,1,16
DA:67,0
DA:71,6
DA:72,6
BRDA:72,0,0,6
BRDA:72,0,1,0
DA:73,6
DA:77,306
BRDA:77,0,0,300
BRDA:77,0,1,6
DA:78,300
BRDA:78,0,0,150
BRDA:78,0,1,150
DA:83,102036
BRDA:83,0,0,101886
BRDA:83,0,1,150
DA:84,101886
DA:87,6
end_of_record
SF:/usr/include/c++/9/bits/basic_string.tcc
FN:206,_ZNSt7__cxx1112basic_stringIcSt11char_traitsIcESaIcEE12_M_constructIPcEEvT_S7_St20forward_iterator_tag
FNDA:0,_ZNSt7__cxx1112basic_stringIcSt11char_traitsIcESaIcEE12_M_constructIPcEEvT_S7_St20forward_iterator_tag
FN:206,_ZNSt7__cxx1112basic_stringIcSt11char_traitsIcESaIcEE12_M_constructIPKcEEvT_S8_St20forward_iterator_tag
FNDA:145,_ZNSt7__cxx1112basic_stringIcSt11char_traitsIcESaIcEE12_M_constructIPKcEEvT_S8_St20forward_iterator_tag
DA:206,0
DA:211,0
BRDA:211,0,0,-
BRDA:211,0,1,-
BRDA:211,0,2,-
BRDA:211,0,3,-
BRDA:211,0,4,-
BRDA:211,0,5,-
DA:212,0
DA:215,0
BRDA:215,0,0,-
BRDA:215,0,1,-
DA:217,0
BRDA:217,0,0,-
BRDA:217,0,1,-
DA:219,0
BRDA:219,0,0,-
BRDA:219,0,1,-
BRDA:219,0,2,-
BRDA:219,0,3,-
DA:220,0
BRDA:220,0,0,-
BRDA:220,0,1,-
DA:225,0
BRDA:225,0,0,-
BRDA:225,0,1,-
DA:226,0
DA:228,0
BRDA:228,0,0,0
BRDA:228,0,1,0
DA:229,0
DA:232,0
BRDA:232,0,0,-
BRDA:232,0,1,-
DA:233,0
DA:206,145
DA:211,145
BRDA:211,0,0,0
BRDA:211,0,1,145
BRDA:211,0,2,0
BRDA:211,0,3,0
BRDA:211,0,4,0
BRDA:211,0,5,145
DA:212,0
DA:215,145
BRDA:215,0,0,145
BRDA:215,0,1,0
DA:217,145
BRDA:217,0,0,101
BRDA:217,0,1,44
DA:219,101
BRDA:219,0,0,101
BRDA:219,0,1,0
BRDA:219,0,2,101
BRDA:219,0,3,0
DA:220,101
BRDA:220,0,0,101
BRDA:220,0,1,0
DA:225,145
BRDA:225,0,0,145
BRDA:225,0,1,0
DA:226,0
DA:228,0
BRDA:228,0,0,0
BRDA:228,0,1,0
DA:229,0
DA:232,145
BRDA:232,0,0,145
BRDA:232,0,1,0
DA:233,145
end_of_record
